Archive member included to satisfy reference by file (symbol)

..\..\platform\libs\libplatform.a(audio.o)
                              Output\obj\platform\bsp\bsp_audio.o (adpll_spr_set)
..\..\platform\libs\libplatform.a(audio_anc.o)
                              Output\obj\platform\bsp\bsp_sys.o (anc_var_init)
..\..\platform\libs\libplatform.a(audio_eq.o)
                              Output\obj\platform\bsp\bsp_eq.o (music_drc_off)
..\..\platform\libs\libplatform.a(dac.o)
                              Output\obj\platform\functions\func_lowpwr.o (dac_power_off_pulldown_daclr)
..\..\platform\libs\libplatform.a(mic_trim.o)
                              Output\obj\platform\bsp\bsp_sys.o (mic_bias_trim)
..\..\platform\libs\libplatform.a(sdadc.o)
                              Output\obj\platform\bsp\bsp_audio.o (sdadc_init)
..\..\platform\libs\libplatform.a(bt.o)
                              Output\obj\platform\bsp\bsp_bt.o (ble_house_adv_init)
..\..\platform\libs\libplatform.a(bt_aec.o)
                              ..\..\platform\libs\libplatform.a(sdadc.o) (aec_dig_gain)
..\..\platform\libs\libplatform.a(bt_sco.o)
                              Output\obj\platform\functions\sfunc_bt_call.o (bt_voice_init)
..\..\platform\libs\libplatform.a(s_bt_aec.o)
                              ..\..\platform\libs\libplatform.a(bt_aec.o) (aec_dig_gain_process_s)
..\..\platform\libs\libplatform.a(cm.o)
                              Output\obj\platform\bsp\bsp_cm.o (cm_sync)
..\..\platform\libs\libplatform.a(xcfg.o)
                              Output\obj\projects\earphone\main.o (xcfg_init)
..\..\platform\libs\libplatform.a(esbc.o)
                              Output\obj\platform\bsp\bsp_music.o (esbc_res_play)
..\..\platform\libs\libplatform.a(main.o)
                              ..\..\platform\libs\libplatform.a(bt_sco.o) (bt_sco_patch_enter)
..\..\platform\libs\libplatform.a(codecs_pcm.o)
                              ..\..\platform\libs\libplatform.a(audio_eq.o) (dbb_cb)
..\..\platform\libs\libplatform.a(s_dac.o)
                              ..\..\platform\libs\libplatform.a(audio_eq.o) (sco_eq_cal_s)
..\..\platform\libs\libplatform.a(s_sys.o)
                              ..\..\platform\libs\libplatform.a(codecs_pcm.o) (pcm_soft_vol_process)
..\..\platform\libs\libplatform.a(reset.o)
                              (_start)
..\..\platform\libs\libplatform.a(os_flash.o)
                              ..\..\platform\libs\libplatform.a(cm.o) (os_spiflash_program)
..\..\platform\libs\libplatform.a(charge.o)
                              ..\..\platform\libs\libplatform.a(main.o) (charge_start)
..\..\platform\libs\libplatform.a(debug.o)
                              ..\..\platform\libs\libplatform.a(main.o) (debug_set)
..\..\platform\libs\libplatform.a(maskrom_func.o)
                              ..\..\platform\libs\libplatform.a(sdadc.o) (sdadc_analog_stop)
..\..\platform\libs\libplatform.a(patch.o)
                              ..\..\platform\libs\libplatform.a(main.o) (patch_set)
..\..\platform\libs\libplatform.a(power.o)
                              Output\obj\platform\bsp\bsp_sys.o (pmu_init)
..\..\platform\libs\libplatform.a(qtest.o)
                              Output\obj\platform\bsp\bsp_bt.o (qtest_is_loading_local_addr)
..\..\platform\libs\libplatform.a(sys_hook.o)
                              ..\..\platform\libs\libplatform.a(main.o) (sys_hook_var_init)
..\..\platform\libs\libplatform.a(voltage_trim.o)
                              Output\obj\platform\bsp\bsp_sys.o (voltage_trim_value_init)
..\..\platform\libs\libplatform.a(interrupt.o)
                              ..\..\platform\libs\libplatform.a(main.o) (irq_init)
..\..\platform\libs\libplatform.a(startup.o)
                              ..\..\platform\libs\libplatform.a(main.o) (sys_startup)
..\..\platform\libs\libplatform.a(music.o)
                              ..\..\platform\libs\libplatform.a(startup.o) (thread_music_entry)
..\..\platform\libs\libplatform.a(sys.o)
                              ..\..\platform\libs\libplatform.a(sys_hook.o) (sys_sleep_cb)
..\..\platform\libs\libplatform.a(sys_clk.o)
                              ..\..\platform\libs\libplatform.a(sys_hook.o) (sys_clk_set_do)
..\..\platform\libs\libplatform.a(sha256.o)
                              ..\..\platform\libs\libplatform.a(sys.o) (sha256_init)
..\..\platform\libs\libbtstack.a(ext_tsco.o)
                              ..\..\platform\libs\libplatform.a(main.o) (ext_tsco_buf_insert)
..\..\platform\libs\libbtstack.a(lc.o)
                              ..\..\platform\libs\libplatform.a(sys_hook.o) (lc_lmp_tx_dump)
..\..\platform\libs\libbtstack.a(tws_acl.o)
                              ..\..\platform\libs\libplatform.a(sys_hook.o) (tws_get_snoop_plugin_service_hook)
..\..\platform\libs\libbtstack.a(tws_switch.o)
                              ..\..\platform\libs\libplatform.a(main.o) (tws_switch_save_pend_fix)
..\..\platform\libs\libbtstack.a(rf.o)
                              ..\..\platform\libs\libplatform.a(sys_hook.o) (rf_init)
..\..\platform\libs\libbtstack.a(rf_viva.o)
                              ..\..\platform\libs\libbtstack.a(rf.o) (rfphy_init)
..\..\platform\libs\libbtstack.a(bt_api.o)
                              Output\obj\platform\functions\func_bt.o (bt_disconnect)
..\..\platform\libs\libbtstack.a(btstack_api.o)
                              Output\obj\platform\bsp\bsp_bt.o (btstack_send_tws_vol_ctrl_status)
..\..\platform\libs\libbtstack.a(btstack_main.o)
                              ..\..\platform\libs\libbtstack.a(btstack_api.o) (btstack_main)
..\..\platform\libs\libbtstack.a(weak_symbol.o)
                              ..\..\platform\libs\libplatform.a(sys_hook.o) (bt_get_pin_code)
..\..\platform\libs\libbtstack.a(btstack.o)
                              ..\..\platform\libs\libplatform.a(sys_hook.o) (hfp_rx_dump)
..\..\platform\libs\libbtstack.a(btstack_popup.o)
                              ..\..\platform\libs\libbtstack.a(btstack_api.o) (ble_house_ctrl_callback)
..\..\platform\libs\libbtstack.a(btstack_run_loop.o)
                              ..\..\platform\libs\libplatform.a(sys_hook.o) (btstack_run_loop_once)
..\..\platform\libs\libbtstack.a(a2dp_play.o)
                              ..\..\platform\libs\libplatform.a(main.o) (a2dp_is_rx_stop)
..\..\platform\libs\libbtstack.a(aap_server.o)
                              ..\..\platform\libs\libbtstack.a(tws_acl.o) (remove_aap_connect_context)
..\..\platform\libs\libbtstack.a(avctp.o)
                              ..\..\platform\libs\libplatform.a(sys_hook.o) (avctp_packet_handler_hook)
..\..\platform\libs\libbtstack.a(avdtp.o)
                              ..\..\platform\libs\libplatform.a(main.o) (avdtp_signal_ready_to_send_fix)
..\..\platform\libs\libbtstack.a(btstack_link_key_db.o)
                              ..\..\platform\libs\libbtstack.a(btstack_api.o) (btstack_open_link_info)
..\..\platform\libs\libbtstack.a(goep_client.o)
                              ..\..\platform\libs\libbtstack.a(tws_acl.o) (goep_client_remove_connection)
..\..\platform\libs\libbtstack.a(hfp_hf.o)
                              ..\..\platform\libs\libbtstack.a(btstack_api.o) (hfp_hf_dial_number)
..\..\platform\libs\libbtstack.a(map_client.o)
                              ..\..\platform\libs\libbtstack.a(goep_client.o) (map_packet_handler)
..\..\platform\libs\libbtstack.a(obex_iterator.o)
                              ..\..\platform\libs\libbtstack.a(map_client.o) (obex_iterator_init_with_response_packet)
..\..\platform\libs\libbtstack.a(sdp_tbl.o)
                              ..\..\platform\libs\libbtstack.a(aap_server.o) (sds_max_service_buffer)
..\..\platform\libs\libbtstack.a(hci.o)
                              ..\..\platform\libs\libbtstack.a(bt_api.o) (gap_store_link_key_for_bd_addr)
..\..\platform\libs\libbtstack.a(hci_dump.o)
                              ..\..\platform\libs\libplatform.a(sys_hook.o) (hci_dump_packet)
..\..\platform\libs\libbtstack.a(hci_transport_h3_controller.o)
                              ..\..\platform\libs\libbtstack.a(btstack.o) (h3c_trans_packet)
..\..\platform\libs\libbtstack.a(l2cap.o)
                              ..\..\platform\libs\libbtstack.a(avctp.o) (l2cap_get_channel_for_psm)
..\..\platform\libs\libbtstack.a(l2cap_att.o)
                              ..\..\platform\libs\libbtstack.a(tws_acl.o) (remove_latt_connection_context)
..\..\platform\libs\libbtstack.a(tws_con.o)
                              ..\..\platform\libs\libbtstack.a(hci.o) (tws_scan_ctrl)
..\..\platform\libs\libbtstack.a(tws_init.o)
                              ..\..\platform\libs\libbtstack.a(btstack_main.o) (btstack_tws_init)
..\..\platform\libs\libbtstack.a(btpatch.o)
                              ..\..\platform\libs\libplatform.a(main.o) (ext_lc_rx_sync_patch1)
..\..\platform\libs\libbtstack.a(lc_hook.o)
                              ..\..\platform\libs\libbtstack.a(lc.o) (lc_con_cmp_hook)
..\..\platform\libs\libbtstack.a(bb.o)
                              ..\..\platform\libs\libbtstack.a(btstack_main.o) (bb_init)
..\..\platform\libs\libbtstack.a(ext_bt.o)
                              ..\..\platform\libs\libbtstack.a(btpatch.o) (rx_sync_anchor_point)
..\..\platform\libs\libbtstack.a(ext_tws.o)
                              ..\..\platform\libs\libbtstack.a(btstack_api.o) (tws_ring_get_ticks_status)
..\..\platform\libs\libbtstack.a(lc_proc.o)
                              ..\..\platform\libs\libbtstack.a(btstack_main.o) (task_lc_init)
..\..\platform\libs\libbtstack.a(lm_proc.o)
                              ..\..\platform\libs\libbtstack.a(btstack_main.o) (task_lm_init)
..\..\platform\libs\libbtstack.a(tws.o)
                              ..\..\platform\libs\libbtstack.a(lc_hook.o) (tws_ctl_con_cmp)
..\..\platform\libs\libbtstack.a(tws_lmp.o)
                              ..\..\platform\libs\libbtstack.a(avctp.o) (tws_remote_vol_ctrl_flag)
..\..\platform\libs\libbtstack.a(hcic.o)
                              ..\..\platform\libs\libbtstack.a(bb.o) (hcic_init_hook)
..\..\platform\libs\libbtstack.a(att_db.o)
                              ..\..\platform\libs\libbtstack.a(l2cap_att.o) (att_set_db)
..\..\platform\libs\libbtstack.a(att_server.o)
                              ..\..\platform\libs\libbtstack.a(l2cap_att.o) (att_connection)
..\..\platform\libs\libbtstack.a(gatt_server.o)
                              ..\..\platform\libs\libbtstack.a(l2cap_att.o) (att_read_callback)
..\..\platform\libs\libbtstack.a(att_siri_server.o)
                              ..\..\platform\libs\libbtstack.a(gatt_server.o) (va_write_callback)
..\..\platform\libs\libbtstack.a(nanos.o)
                              ..\..\platform\libs\libbtstack.a(lc_proc.o) (nanos_task_replace)
..\..\platform\libs\libcodecs.a(ains3.o)
                              ..\..\platform\libs\libplatform.a(main.o) (ains3_nr_process)

Discarded input sections

 .text          0x0000000000000000        0x0 Output\obj\platform\bsp\bsp_188led_driver.o
 .data          0x0000000000000000        0x0 Output\obj\platform\bsp\bsp_188led_driver.o
 .bss           0x0000000000000000       0x18 Output\obj\platform\bsp\bsp_188led_driver.o
 .comment       0x0000000000000000       0x13 Output\obj\platform\bsp\bsp_188led_driver.o
 .riscv.attributes
                0x0000000000000000       0x32 Output\obj\platform\bsp\bsp_188led_driver.o
 .text          0x0000000000000000        0x0 Output\obj\platform\bsp\bsp_anc.o
 .data          0x0000000000000000        0x0 Output\obj\platform\bsp\bsp_anc.o
 .bss           0x0000000000000000        0x0 Output\obj\platform\bsp\bsp_anc.o
 .comment       0x0000000000000000       0x13 Output\obj\platform\bsp\bsp_anc.o
 .riscv.attributes
                0x0000000000000000       0x32 Output\obj\platform\bsp\bsp_anc.o
 .text          0x0000000000000000        0x0 Output\obj\platform\bsp\bsp_audio.o
 .data          0x0000000000000000        0x0 Output\obj\platform\bsp\bsp_audio.o
 .bss           0x0000000000000000        0x0 Output\obj\platform\bsp\bsp_audio.o
 .text.get_aux_channel_cfg
                0x0000000000000000        0x4 Output\obj\platform\bsp\bsp_audio.o
 .rodata.aux    0x0000000000000000        0x4 Output\obj\platform\bsp\bsp_audio.o
 .text          0x0000000000000000        0x0 Output\obj\platform\bsp\bsp_ble.o
 .data          0x0000000000000000        0x0 Output\obj\platform\bsp\bsp_ble.o
 .bss           0x0000000000000000        0x0 Output\obj\platform\bsp\bsp_ble.o
 .text          0x0000000000000000        0x0 Output\obj\platform\bsp\bsp_bt.o
 .data          0x0000000000000000        0x0 Output\obj\platform\bsp\bsp_bt.o
 .bss           0x0000000000000000        0x0 Output\obj\platform\bsp\bsp_bt.o
 .text.bt_fcc_test_is_en
                0x0000000000000000        0x4 Output\obj\platform\bsp\bsp_bt.o
 .text.updata_bt_name
                0x0000000000000000       0x28 Output\obj\platform\bsp\bsp_bt.o
 .text.bsp_bt_msg_nr_sta_change
                0x0000000000000000        0x8 Output\obj\platform\bsp\bsp_bt.o
 .text.bt_get_loc_nr_sta
                0x0000000000000000        0xa Output\obj\platform\bsp\bsp_bt.o
 .text.tws_set_custom_data
                0x0000000000000000        0x2 Output\obj\platform\bsp\bsp_bt.o
 .text.bt_store_a2dp_volume
                0x0000000000000000        0xe Output\obj\platform\bsp\bsp_bt.o
 .text          0x0000000000000000        0x0 Output\obj\platform\bsp\bsp_charge.o
 .data          0x0000000000000000        0x0 Output\obj\platform\bsp\bsp_charge.o
 .bss           0x0000000000000000        0x0 Output\obj\platform\bsp\bsp_charge.o
 .text          0x0000000000000000        0x0 Output\obj\platform\bsp\bsp_cm.o
 .data          0x0000000000000000        0x0 Output\obj\platform\bsp\bsp_cm.o
 .bss           0x0000000000000000        0x0 Output\obj\platform\bsp\bsp_cm.o
 .text          0x0000000000000000        0x0 Output\obj\platform\bsp\bsp_dac.o
 .data          0x0000000000000000        0x0 Output\obj\platform\bsp\bsp_dac.o
 .bss           0x0000000000000000        0x0 Output\obj\platform\bsp\bsp_dac.o
 .text          0x0000000000000000        0x0 Output\obj\platform\bsp\bsp_eq.o
 .data          0x0000000000000000        0x0 Output\obj\platform\bsp\bsp_eq.o
 .bss           0x0000000000000000        0x0 Output\obj\platform\bsp\bsp_eq.o
 .text.eq_get_check_res_sel
                0x0000000000000000        0x4 Output\obj\platform\bsp\bsp_eq.o
 .text.eq_get_check_res_buf
                0x0000000000000000        0xa Output\obj\platform\bsp\bsp_eq.o
 .text          0x0000000000000000        0x0 Output\obj\platform\bsp\bsp_iodm.o
 .data          0x0000000000000000        0x0 Output\obj\platform\bsp\bsp_iodm.o
 .bss           0x0000000000000000        0x0 Output\obj\platform\bsp\bsp_iodm.o
 .comment       0x0000000000000000       0x13 Output\obj\platform\bsp\bsp_iodm.o
 .riscv.attributes
                0x0000000000000000       0x32 Output\obj\platform\bsp\bsp_iodm.o
 .text          0x0000000000000000        0x0 Output\obj\platform\bsp\bsp_key.o
 .data          0x0000000000000000        0x0 Output\obj\platform\bsp\bsp_key.o
 .text          0x0000000000000000        0x0 Output\obj\platform\bsp\bsp_led.o
 .data          0x0000000000000000        0x0 Output\obj\platform\bsp\bsp_led.o
 .bss           0x0000000000000000        0x0 Output\obj\platform\bsp\bsp_led.o
 .text          0x0000000000000000        0x0 Output\obj\platform\bsp\bsp_map.o
 .data          0x0000000000000000        0x0 Output\obj\platform\bsp\bsp_map.o
 .bss           0x0000000000000000        0x0 Output\obj\platform\bsp\bsp_map.o
 .comment       0x0000000000000000       0x13 Output\obj\platform\bsp\bsp_map.o
 .riscv.attributes
                0x0000000000000000       0x32 Output\obj\platform\bsp\bsp_map.o
 .text          0x0000000000000000        0x0 Output\obj\platform\bsp\bsp_mav.o
 .data          0x0000000000000000        0x0 Output\obj\platform\bsp\bsp_mav.o
 .bss           0x0000000000000000        0x0 Output\obj\platform\bsp\bsp_mav.o
 .com_text.mav  0x0000000000000000        0x2 Output\obj\platform\bsp\bsp_mav.o
 .comment       0x0000000000000000       0x13 Output\obj\platform\bsp\bsp_mav.o
 .riscv.attributes
                0x0000000000000000       0x32 Output\obj\platform\bsp\bsp_mav.o
 .text          0x0000000000000000        0x0 Output\obj\platform\bsp\bsp_music.o
 .data          0x0000000000000000        0x0 Output\obj\platform\bsp\bsp_music.o
 .bss           0x0000000000000000        0x0 Output\obj\platform\bsp\bsp_music.o
 .text.wav_res_play
                0x0000000000000000       0x30 Output\obj\platform\bsp\bsp_music.o
 .text          0x0000000000000000        0x0 Output\obj\platform\bsp\bsp_param.o
 .data          0x0000000000000000        0x0 Output\obj\platform\bsp\bsp_param.o
 .bss           0x0000000000000000        0x0 Output\obj\platform\bsp\bsp_param.o
 .text.param_bt_qpdn_boat_flag_write
                0x0000000000000000       0x32 Output\obj\platform\bsp\bsp_param.o
 .text.param_bt_qpdn_boat_flag_read
                0x0000000000000000       0x18 Output\obj\platform\bsp\bsp_param.o
 .text.param_bt_qpaird_id_write
                0x0000000000000000       0x26 Output\obj\platform\bsp\bsp_param.o
 .text.param_bt_qpaird_id_read
                0x0000000000000000       0xa4 Output\obj\platform\bsp\bsp_param.o
 .text.pram_bt_set_tws_qtest_info
                0x0000000000000000       0x26 Output\obj\platform\bsp\bsp_param.o
 .text.pram_bt_get_tws_qtest_info
                0x0000000000000000       0x22 Output\obj\platform\bsp\bsp_param.o
 .text          0x0000000000000000        0x0 Output\obj\platform\bsp\bsp_smart_vhouse.o
 .data          0x0000000000000000        0x0 Output\obj\platform\bsp\bsp_smart_vhouse.o
 .bss           0x0000000000000000       0x16 Output\obj\platform\bsp\bsp_smart_vhouse.o
 .sbss          0x0000000000000000        0x2 Output\obj\platform\bsp\bsp_smart_vhouse.o
 .text          0x0000000000000000        0x0 Output\obj\platform\bsp\bsp_spp.o
 .data          0x0000000000000000        0x0 Output\obj\platform\bsp\bsp_spp.o
 .bss           0x0000000000000000        0x0 Output\obj\platform\bsp\bsp_spp.o
 .text          0x0000000000000000        0x0 Output\obj\platform\bsp\bsp_sys.o
 .data          0x0000000000000000        0x0 Output\obj\platform\bsp\bsp_sys.o
 .bss           0x0000000000000000        0x0 Output\obj\platform\bsp\bsp_sys.o
 .text.dongle   0x0000000000000000       0x14 Output\obj\platform\bsp\bsp_sys.o
 .text          0x0000000000000000        0x0 Output\obj\platform\bsp\bsp_tbox_qtest.o
 .data          0x0000000000000000        0x0 Output\obj\platform\bsp\bsp_tbox_qtest.o
 .bss           0x0000000000000000        0x0 Output\obj\platform\bsp\bsp_tbox_qtest.o
 .comment       0x0000000000000000       0x13 Output\obj\platform\bsp\bsp_tbox_qtest.o
 .riscv.attributes
                0x0000000000000000       0x32 Output\obj\platform\bsp\bsp_tbox_qtest.o
 .text          0x0000000000000000        0x0 Output\obj\platform\bsp\bsp_tkey.o
 .data          0x0000000000000000        0x0 Output\obj\platform\bsp\bsp_tkey.o
 .bss           0x0000000000000000        0x0 Output\obj\platform\bsp\bsp_tkey.o
 .text          0x0000000000000000        0x0 Output\obj\platform\bsp\bsp_vusb_uart.o
 .data          0x0000000000000000        0x0 Output\obj\platform\bsp\bsp_vusb_uart.o
 .bss           0x0000000000000000        0x0 Output\obj\platform\bsp\bsp_vusb_uart.o
 .text          0x0000000000000000        0x0 Output\obj\platform\bsp\bsp_warning_play.o
 .data          0x0000000000000000        0x0 Output\obj\platform\bsp\bsp_warning_play.o
 .bss           0x0000000000000000        0x0 Output\obj\platform\bsp\bsp_warning_play.o
 .text.key_voice_play
                0x0000000000000000       0x76 Output\obj\platform\bsp\bsp_warning_play.o
 .text          0x0000000000000000        0x0 Output\obj\platform\functions\func.o
 .data          0x0000000000000000        0x0 Output\obj\platform\functions\func.o
 .bss           0x0000000000000000        0x0 Output\obj\platform\functions\func.o
 .text          0x0000000000000000        0x0 Output\obj\platform\functions\func_aux.o
 .data          0x0000000000000000        0x0 Output\obj\platform\functions\func_aux.o
 .bss           0x0000000000000000        0x0 Output\obj\platform\functions\func_aux.o
 .text.aux_is_start
                0x0000000000000000        0x4 Output\obj\platform\functions\func_aux.o
 .text.func_aux_stop
                0x0000000000000000        0x2 Output\obj\platform\functions\func_aux.o
 .text.func_aux_recover_play
                0x0000000000000000        0x2 Output\obj\platform\functions\func_aux.o
 .comment       0x0000000000000000       0x13 Output\obj\platform\functions\func_aux.o
 .riscv.attributes
                0x0000000000000000       0x32 Output\obj\platform\functions\func_aux.o
 .text          0x0000000000000000        0x0 Output\obj\platform\functions\func_bt.o
 .data          0x0000000000000000        0x0 Output\obj\platform\functions\func_bt.o
 .bss           0x0000000000000000        0x0 Output\obj\platform\functions\func_bt.o
 .text.bt_tws_vbat_switch
                0x0000000000000000       0xbc Output\obj\platform\functions\func_bt.o
 .rodata.bt.cbt
                0x0000000000000000        0xc Output\obj\platform\functions\func_bt.o
 .text          0x0000000000000000        0x0 Output\obj\platform\functions\func_bt_hid.o
 .data          0x0000000000000000        0x0 Output\obj\platform\functions\func_bt_hid.o
 .bss           0x0000000000000000        0x0 Output\obj\platform\functions\func_bt_hid.o
 .comment       0x0000000000000000       0x13 Output\obj\platform\functions\func_bt_hid.o
 .riscv.attributes
                0x0000000000000000       0x32 Output\obj\platform\functions\func_bt_hid.o
 .text          0x0000000000000000        0x0 Output\obj\platform\functions\func_lowpwr.o
 .data          0x0000000000000000        0x0 Output\obj\platform\functions\func_lowpwr.o
 .bss           0x0000000000000000        0x0 Output\obj\platform\functions\func_lowpwr.o
 .text          0x0000000000000000        0x0 Output\obj\platform\functions\func_speaker.o
 .data          0x0000000000000000        0x0 Output\obj\platform\functions\func_speaker.o
 .bss           0x0000000000000000        0x0 Output\obj\platform\functions\func_speaker.o
 .comment       0x0000000000000000       0x13 Output\obj\platform\functions\func_speaker.o
 .riscv.attributes
                0x0000000000000000       0x32 Output\obj\platform\functions\func_speaker.o
 .text          0x0000000000000000        0x0 Output\obj\platform\functions\sfunc_bt_call.o
 .data          0x0000000000000000        0x0 Output\obj\platform\functions\sfunc_bt_call.o
 .bss           0x0000000000000000        0x0 Output\obj\platform\functions\sfunc_bt_call.o
 .text          0x0000000000000000        0x0 Output\obj\platform\functions\sfunc_bt_ring.o
 .data          0x0000000000000000        0x0 Output\obj\platform\functions\sfunc_bt_ring.o
 .bss           0x0000000000000000        0x0 Output\obj\platform\functions\sfunc_bt_ring.o
 .text          0x0000000000000000        0x0 Output\obj\platform\libs\strong_symbol.o
 .data          0x0000000000000000        0x0 Output\obj\platform\libs\strong_symbol.o
 .bss           0x0000000000000000        0x0 Output\obj\platform\libs\strong_symbol.o
 .text.sys_dhook_func
                0x0000000000000000       0x16 Output\obj\platform\libs\strong_symbol.o
 .text.voice_assistant_sdadc_process
                0x0000000000000000        0x2 Output\obj\platform\libs\strong_symbol.o
 .text.att_channel_create
                0x0000000000000000        0x4 Output\obj\platform\libs\strong_symbol.o
 .text.opus_kick_start
                0x0000000000000000        0x2 Output\obj\platform\libs\strong_symbol.o
 .com_text.mav  0x0000000000000000        0x2 Output\obj\platform\libs\strong_symbol.o
 .text.magic_voice_init
                0x0000000000000000        0x2 Output\obj\platform\libs\strong_symbol.o
 .text.bt_fcc_test_ctrl_req_do
                0x0000000000000000        0x2 Output\obj\platform\libs\strong_symbol.o
 .text.h3c_init
                0x0000000000000000        0x2 Output\obj\platform\libs\strong_symbol.o
 .text.get_mic_maxpow
                0x0000000000000000        0x4 Output\obj\platform\libs\strong_symbol.o
 .text.dnr_buf_maxpow
                0x0000000000000000        0x4 Output\obj\platform\libs\strong_symbol.o
 .text.qtest_set_check_code
                0x0000000000000000        0x2 Output\obj\platform\libs\strong_symbol.o
 .text.qtest_show_user_info
                0x0000000000000000        0x2 Output\obj\platform\libs\strong_symbol.o
 .text.qtest_custom_pair_id
                0x0000000000000000        0x2 Output\obj\platform\libs\strong_symbol.o
 .text.qtest_generate_linkey
                0x0000000000000000        0x2 Output\obj\platform\libs\strong_symbol.o
 .text.qtest_send_packet
                0x0000000000000000        0x2 Output\obj\platform\libs\strong_symbol.o
 .text.qtest_set_local_bt_info_do
                0x0000000000000000        0x2 Output\obj\platform\libs\strong_symbol.o
 .text.qtest_set_tx_param
                0x0000000000000000        0x2 Output\obj\platform\libs\strong_symbol.o
 .text.qtest_deal_uart_message
                0x0000000000000000        0x2 Output\obj\platform\libs\strong_symbol.o
 .text.qtest_set_tws_bt_info
                0x0000000000000000        0x2 Output\obj\platform\libs\strong_symbol.o
 .text.qtest_set_local_bt_info
                0x0000000000000000        0x2 Output\obj\platform\libs\strong_symbol.o
 .text.qtest_set_tws_bt_info_do
                0x0000000000000000        0x2 Output\obj\platform\libs\strong_symbol.o
 .text.qtest_get_bt_link_info
                0x0000000000000000        0x2 Output\obj\platform\libs\strong_symbol.o
 .text.qtest_check_ear_feature
                0x0000000000000000        0x4 Output\obj\platform\libs\strong_symbol.o
 .text.qtest_check_tbox_feature
                0x0000000000000000        0x4 Output\obj\platform\libs\strong_symbol.o
 .text.qtest_get_osci_cap_addr
                0x0000000000000000        0x4 Output\obj\platform\libs\strong_symbol.o
 .text.xcfg_get_flash_addr
                0x0000000000000000        0x4 Output\obj\platform\libs\strong_symbol.o
 .text.param_bt_qpaird_id_write
                0x0000000000000000        0x2 Output\obj\platform\libs\strong_symbol.o
 .text.pram_bt_set_tws_qtest_info
                0x0000000000000000        0x2 Output\obj\platform\libs\strong_symbol.o
 .text.pram_bt_get_tws_qtest_info
                0x0000000000000000        0x4 Output\obj\platform\libs\strong_symbol.o
 .text.bt_update_qtest_tws_info
                0x0000000000000000        0x4 Output\obj\platform\libs\strong_symbol.o
 .text.dbb      0x0000000000000000        0x4 Output\obj\platform\libs\strong_symbol.o
 .text.dbb_dec_param
                0x0000000000000000        0x2 Output\obj\platform\libs\strong_symbol.o
 .com_text.tkey.isr
                0x0000000000000000        0x8 Output\obj\platform\libs\strong_symbol.o
 .text.bt_get_stored_a2dp_volume
                0x0000000000000000        0x4 Output\obj\platform\libs\strong_symbol.o
 .text.rf_current_supply
                0x0000000000000000        0x2 Output\obj\platform\libs\strong_symbol.o
 .text.rf_current_recover
                0x0000000000000000        0x2 Output\obj\platform\libs\strong_symbol.o
 .text.btmdm_disable
                0x0000000000000000        0x2 Output\obj\platform\libs\strong_symbol.o
 .text.btmdm_enable
                0x0000000000000000        0x2 Output\obj\platform\libs\strong_symbol.o
 .text.bt_power_balance_reconnect
                0x0000000000000000        0x2 Output\obj\platform\libs\strong_symbol.o
 .text.charge_detect_hook
                0x0000000000000000        0x2 Output\obj\platform\libs\strong_symbol.o
 .text.bt_check_snoop_rssi
                0x0000000000000000        0x4 Output\obj\platform\libs\strong_symbol.o
 .text.tws_send_set_reconnect_nor
                0x0000000000000000        0x2 Output\obj\platform\libs\strong_symbol.o
 .text.bt_low_latency_is_busy
                0x0000000000000000        0x4 Output\obj\platform\libs\strong_symbol.o
 .text.bt_low_latency_set_busy
                0x0000000000000000        0x2 Output\obj\platform\libs\strong_symbol.o
 .text.qtest_dma_send_msg2tbox
                0x0000000000000000        0x2 Output\obj\platform\libs\strong_symbol.o
 .com_text.qtest
                0x0000000000000000        0x2 Output\obj\platform\libs\strong_symbol.o
 .com_text.vhouse
                0x0000000000000000        0x2 Output\obj\platform\libs\strong_symbol.o
 .text          0x0000000000000000        0x0 Output\obj\projects\earphone\config.o
 .data          0x0000000000000000        0x0 Output\obj\projects\earphone\config.o
 .bss           0x0000000000000000        0x0 Output\obj\projects\earphone\config.o
 .text.getcfg_bt_fcc_io
                0x0000000000000000        0xe Output\obj\projects\earphone\config.o
 .text          0x0000000000000000        0x0 Output\obj\projects\earphone\main.o
 .data          0x0000000000000000        0x0 Output\obj\projects\earphone\main.o
 .bss           0x0000000000000000        0x0 Output\obj\projects\earphone\main.o
 .text          0x0000000000000000        0x0 Output\obj\projects\earphone\message\msg_aux.o
 .data          0x0000000000000000        0x0 Output\obj\projects\earphone\message\msg_aux.o
 .bss           0x0000000000000000        0x0 Output\obj\projects\earphone\message\msg_aux.o
 .comment       0x0000000000000000       0x13 Output\obj\projects\earphone\message\msg_aux.o
 .riscv.attributes
                0x0000000000000000       0x32 Output\obj\projects\earphone\message\msg_aux.o
 .text          0x0000000000000000        0x0 Output\obj\projects\earphone\message\msg_bt.o
 .data          0x0000000000000000        0x0 Output\obj\projects\earphone\message\msg_bt.o
 .bss           0x0000000000000000        0x0 Output\obj\projects\earphone\message\msg_bt.o
 .text          0x0000000000000000        0x0 Output\obj\projects\earphone\message\msg_speak.o
 .data          0x0000000000000000        0x0 Output\obj\projects\earphone\message\msg_speak.o
 .bss           0x0000000000000000        0x0 Output\obj\projects\earphone\message\msg_speak.o
 .comment       0x0000000000000000       0x13 Output\obj\projects\earphone\message\msg_speak.o
 .riscv.attributes
                0x0000000000000000       0x32 Output\obj\projects\earphone\message\msg_speak.o
 .text          0x0000000000000000        0x0 Output\obj\projects\earphone\plugin\multi_lang.o
 .data          0x0000000000000000        0x0 Output\obj\projects\earphone\plugin\multi_lang.o
 .bss           0x0000000000000000        0x0 Output\obj\projects\earphone\plugin\multi_lang.o
 .text.res_get_ring_num
                0x0000000000000000       0x22 Output\obj\projects\earphone\plugin\multi_lang.o
 .text          0x0000000000000000        0x0 Output\obj\projects\earphone\plugin\plugin.o
 .data          0x0000000000000000        0x0 Output\obj\projects\earphone\plugin\plugin.o
 .bss           0x0000000000000000        0x0 Output\obj\projects\earphone\plugin\plugin.o
 .huart_buf     0x0000000000000000      0x200 Output\obj\projects\earphone\plugin\plugin.o
 .text          0x0000000000000000        0x0 Output\obj\projects\earphone\plugin\timer.o
 .data          0x0000000000000000        0x0 Output\obj\projects\earphone\plugin\timer.o
 .bss           0x0000000000000000        0x0 Output\obj\projects\earphone\plugin\timer.o
 .comment       0x0000000000000000       0x13 Output\obj\projects\earphone\plugin\timer.o
 .riscv.attributes
                0x0000000000000000       0x32 Output\obj\projects\earphone\plugin\timer.o
 .text          0x0000000000000000        0x0 Output\obj\projects\earphone\port\port_atmosphere_led.o
 .data          0x0000000000000000        0x0 Output\obj\projects\earphone\port\port_atmosphere_led.o
 .bss           0x0000000000000000        0x0 Output\obj\projects\earphone\port\port_atmosphere_led.o
 .comment       0x0000000000000000       0x13 Output\obj\projects\earphone\port\port_atmosphere_led.o
 .riscv.attributes
                0x0000000000000000       0x32 Output\obj\projects\earphone\port\port_atmosphere_led.o
 .text          0x0000000000000000        0x0 Output\obj\projects\earphone\port\port_breathe_led.o
 .data          0x0000000000000000        0x0 Output\obj\projects\earphone\port\port_breathe_led.o
 .bss           0x0000000000000000        0x0 Output\obj\projects\earphone\port\port_breathe_led.o
 .com_text.timer
                0x0000000000000000      0x176 Output\obj\projects\earphone\port\port_breathe_led.o
 .sbss          0x0000000000000000        0x1 Output\obj\projects\earphone\port\port_breathe_led.o
 .text          0x0000000000000000        0x0 Output\obj\projects\earphone\port\port_ear_in.o
 .data          0x0000000000000000        0x0 Output\obj\projects\earphone\port\port_ear_in.o
 .bss           0x0000000000000000        0x0 Output\obj\projects\earphone\port\port_ear_in.o
 .comment       0x0000000000000000       0x13 Output\obj\projects\earphone\port\port_ear_in.o
 .riscv.attributes
                0x0000000000000000       0x32 Output\obj\projects\earphone\port\port_ear_in.o
 .text          0x0000000000000000        0x0 Output\obj\projects\earphone\port\port_hall_sensor.o
 .data          0x0000000000000000        0x0 Output\obj\projects\earphone\port\port_hall_sensor.o
 .bss           0x0000000000000000        0x0 Output\obj\projects\earphone\port\port_hall_sensor.o
 .comment       0x0000000000000000       0x13 Output\obj\projects\earphone\port\port_hall_sensor.o
 .riscv.attributes
                0x0000000000000000       0x32 Output\obj\projects\earphone\port\port_hall_sensor.o
 .text          0x0000000000000000        0x0 Output\obj\projects\earphone\port\port_key.o
 .data          0x0000000000000000        0x0 Output\obj\projects\earphone\port\port_key.o
 .bss           0x0000000000000000        0x0 Output\obj\projects\earphone\port\port_key.o
 .text          0x0000000000000000        0x0 Output\obj\projects\earphone\port\port_led.o
 .data          0x0000000000000000        0x0 Output\obj\projects\earphone\port\port_led.o
 .bss           0x0000000000000000        0x0 Output\obj\projects\earphone\port\port_led.o
 .text          0x0000000000000000        0x0 Output\obj\projects\earphone\port\port_linein.o
 .data          0x0000000000000000        0x0 Output\obj\projects\earphone\port\port_linein.o
 .bss           0x0000000000000000        0x0 Output\obj\projects\earphone\port\port_linein.o
 .comment       0x0000000000000000       0x13 Output\obj\projects\earphone\port\port_linein.o
 .riscv.attributes
                0x0000000000000000       0x32 Output\obj\projects\earphone\port\port_linein.o
 .text          0x0000000000000000        0x0 Output\obj\projects\earphone\port\port_tkey.o
 .data          0x0000000000000000        0x0 Output\obj\projects\earphone\port\port_tkey.o
 .bss           0x0000000000000000        0x0 Output\obj\projects\earphone\port\port_tkey.o
 .text          0x0000000000000000        0x0 ..\..\platform\libs\libplatform.a(audio.o)
 .data          0x0000000000000000        0x0 ..\..\platform\libs\libplatform.a(audio.o)
 .bss           0x0000000000000000        0x0 ..\..\platform\libs\libplatform.a(audio.o)
 .text          0x0000000000000000        0x0 ..\..\platform\libs\libplatform.a(audio_anc.o)
 .data          0x0000000000000000        0x0 ..\..\platform\libs\libplatform.a(audio_anc.o)
 .bss           0x0000000000000000        0x0 ..\..\platform\libs\libplatform.a(audio_anc.o)
 .text          0x0000000000000000        0x0 ..\..\platform\libs\libplatform.a(audio_eq.o)
 .data          0x0000000000000000        0x0 ..\..\platform\libs\libplatform.a(audio_eq.o)
 .bss           0x0000000000000000        0x0 ..\..\platform\libs\libplatform.a(audio_eq.o)
 .rodata.str1.4
                0x0000000000000000       0x11 ..\..\platform\libs\libplatform.a(audio_eq.o)
 .com_text.eq   0x0000000000000000       0x4a ..\..\platform\libs\libplatform.a(audio_eq.o)
 .rodata.eq_check_decrypt_key_do.str1.4
                0x0000000000000000       0x41 ..\..\platform\libs\libplatform.a(audio_eq.o)
 .text.eq_check_decrypt_key_do
                0x0000000000000000      0x13e ..\..\platform\libs\libplatform.a(audio_eq.o)
 .text.eq_check_res
                0x0000000000000000       0x20 ..\..\platform\libs\libplatform.a(audio_eq.o)
 .text.eq_dec_param
                0x0000000000000000       0x92 ..\..\platform\libs\libplatform.a(audio_eq.o)
 .text.dbb_dec_param
                0x0000000000000000       0x40 ..\..\platform\libs\libplatform.a(audio_eq.o)
 .text.music_soft_eq_init
                0x0000000000000000       0x42 ..\..\platform\libs\libplatform.a(audio_eq.o)
 .text.dbb      0x0000000000000000       0x18 ..\..\platform\libs\libplatform.a(audio_eq.o)
 .text.dbb.eq   0x0000000000000000       0x7e ..\..\platform\libs\libplatform.a(audio_eq.o)
 .com_text.dbb  0x0000000000000000       0xe4 ..\..\platform\libs\libplatform.a(audio_eq.o)
 .text.dbb.process
                0x0000000000000000       0x34 ..\..\platform\libs\libplatform.a(audio_eq.o)
 .bss.biquad_sb_0
                0x0000000000000000       0x14 ..\..\platform\libs\libplatform.a(audio_eq.o)
 .bss.biquad_sb_1
                0x0000000000000000       0x14 ..\..\platform\libs\libplatform.a(audio_eq.o)
 .bss.eq_dec_param_buf
                0x0000000000000000      0x200 ..\..\platform\libs\libplatform.a(audio_eq.o)
 .dbb_dec_buf   0x0000000000000000      0x400 ..\..\platform\libs\libplatform.a(audio_eq.o)
 .rodata.encrypt_data
                0x0000000000000000        0xc ..\..\platform\libs\libplatform.a(audio_eq.o)
 .sbss.cfg_dbb_enc_en
                0x0000000000000000        0x1 ..\..\platform\libs\libplatform.a(audio_eq.o)
 .sbss.eq_dec_err_silence_en
                0x0000000000000000        0x1 ..\..\platform\libs\libplatform.a(audio_eq.o)
 .sbss.eq_dec_flag
                0x0000000000000000        0x1 ..\..\platform\libs\libplatform.a(audio_eq.o)
 .srodata.eq_check_res_header
                0x0000000000000000        0x5 ..\..\platform\libs\libplatform.a(audio_eq.o)
 .text.rodata   0x0000000000000000       0xe0 ..\..\platform\libs\libplatform.a(audio_eq.o)
 .text          0x0000000000000000        0x0 ..\..\platform\libs\libplatform.a(dac.o)
 .data          0x0000000000000000        0x0 ..\..\platform\libs\libplatform.a(dac.o)
 .bss           0x0000000000000000        0x0 ..\..\platform\libs\libplatform.a(dac.o)
 .text.dac_wait_vol_match
                0x0000000000000000       0x22 ..\..\platform\libs\libplatform.a(dac.o)
 .com_text.dac  0x0000000000000000       0xaa ..\..\platform\libs\libplatform.a(dac.o)
 .text          0x0000000000000000        0x0 ..\..\platform\libs\libplatform.a(mic_trim.o)
 .data          0x0000000000000000        0x0 ..\..\platform\libs\libplatform.a(mic_trim.o)
 .bss           0x0000000000000000        0x0 ..\..\platform\libs\libplatform.a(mic_trim.o)
 .text          0x0000000000000000        0x0 ..\..\platform\libs\libplatform.a(sdadc.o)
 .data          0x0000000000000000        0x0 ..\..\platform\libs\libplatform.a(sdadc.o)
 .bss           0x0000000000000000        0x0 ..\..\platform\libs\libplatform.a(sdadc.o)
 .text.aux.dnr  0x0000000000000000       0x34 ..\..\platform\libs\libplatform.a(sdadc.o)
 .text.get_mic_maxpow
                0x0000000000000000       0x14 ..\..\platform\libs\libplatform.a(sdadc.o)
 .text          0x0000000000000000        0x0 ..\..\platform\libs\libplatform.a(bt.o)
 .data          0x0000000000000000        0x0 ..\..\platform\libs\libplatform.a(bt.o)
 .bss           0x0000000000000000        0x0 ..\..\platform\libs\libplatform.a(bt.o)
 .text          0x0000000000000000        0x0 ..\..\platform\libs\libplatform.a(bt_aec.o)
 .data          0x0000000000000000        0x0 ..\..\platform\libs\libplatform.a(bt_aec.o)
 .bss           0x0000000000000000        0x0 ..\..\platform\libs\libplatform.a(bt_aec.o)
 .com_text.aec.nlp_gain
                0x0000000000000000      0x1ee ..\..\platform\libs\libplatform.a(bt_aec.o)
 .text          0x0000000000000000        0x0 ..\..\platform\libs\libplatform.a(bt_sco.o)
 .data          0x0000000000000000        0x0 ..\..\platform\libs\libplatform.a(bt_sco.o)
 .bss           0x0000000000000000        0x0 ..\..\platform\libs\libplatform.a(bt_sco.o)
 .com_text.sco  0x0000000000000000       0x7c ..\..\platform\libs\libplatform.a(bt_sco.o)
 .com_text.bb.cvsd
                0x0000000000000000       0x2e ..\..\platform\libs\libplatform.a(bt_sco.o)
 .text.bt_sco_magic_voice_en
                0x0000000000000000        0x4 ..\..\platform\libs\libplatform.a(bt_sco.o)
 .text.bt_call_test_set_mic
                0x0000000000000000       0x5a ..\..\platform\libs\libplatform.a(bt_sco.o)
 .text          0x0000000000000000        0x0 ..\..\platform\libs\libplatform.a(s_bt_aec.o)
 .data          0x0000000000000000        0x0 ..\..\platform\libs\libplatform.a(s_bt_aec.o)
 .bss           0x0000000000000000        0x0 ..\..\platform\libs\libplatform.a(s_bt_aec.o)
 .text          0x0000000000000000        0x0 ..\..\platform\libs\libplatform.a(cm.o)
 .data          0x0000000000000000        0x0 ..\..\platform\libs\libplatform.a(cm.o)
 .bss           0x0000000000000000        0x0 ..\..\platform\libs\libplatform.a(cm.o)
 .rodata.cm_move_allpages.str1.4
                0x0000000000000000       0x3a ..\..\platform\libs\libplatform.a(cm.o)
 .text.cm_move_allpages
                0x0000000000000000      0x140 ..\..\platform\libs\libplatform.a(cm.o)
 .text.cm_get_startaddr
                0x0000000000000000        0xa ..\..\platform\libs\libplatform.a(cm.o)
 .text.cm_get_area
                0x0000000000000000       0x14 ..\..\platform\libs\libplatform.a(cm.o)
 .text.cm_release_all
                0x0000000000000000       0x90 ..\..\platform\libs\libplatform.a(cm.o)
 .text.cm_read8
                0x0000000000000000       0x28 ..\..\platform\libs\libplatform.a(cm.o)
 .text.cm_read16
                0x0000000000000000       0x28 ..\..\platform\libs\libplatform.a(cm.o)
 .text.cm_read32
                0x0000000000000000       0x24 ..\..\platform\libs\libplatform.a(cm.o)
 .text.cm_write8
                0x0000000000000000       0x28 ..\..\platform\libs\libplatform.a(cm.o)
 .text.cm_write16
                0x0000000000000000       0x28 ..\..\platform\libs\libplatform.a(cm.o)
 .text.cm_write32
                0x0000000000000000       0x24 ..\..\platform\libs\libplatform.a(cm.o)
 .text.cm_clear
                0x0000000000000000       0x5e ..\..\platform\libs\libplatform.a(cm.o)
 .text          0x0000000000000000        0x0 ..\..\platform\libs\libplatform.a(xcfg.o)
 .data          0x0000000000000000        0x0 ..\..\platform\libs\libplatform.a(xcfg.o)
 .bss           0x0000000000000000        0x0 ..\..\platform\libs\libplatform.a(xcfg.o)
 .text.get_spiloader_offset
                0x0000000000000000        0x4 ..\..\platform\libs\libplatform.a(xcfg.o)
 .text.xcfg_get_flash_addr
                0x0000000000000000       0x1c ..\..\platform\libs\libplatform.a(xcfg.o)
 .text.qtest_get_osci_cap_addr
                0x0000000000000000       0x1e ..\..\platform\libs\libplatform.a(xcfg.o)
 .text          0x0000000000000000        0x0 ..\..\platform\libs\libplatform.a(esbc.o)
 .data          0x0000000000000000        0x0 ..\..\platform\libs\libplatform.a(esbc.o)
 .bss           0x0000000000000000        0x0 ..\..\platform\libs\libplatform.a(esbc.o)
 .text          0x0000000000000000        0x0 ..\..\platform\libs\libplatform.a(main.o)
 .data          0x0000000000000000        0x0 ..\..\platform\libs\libplatform.a(main.o)
 .bss           0x0000000000000000        0x0 ..\..\platform\libs\libplatform.a(main.o)
 .com_text.stack.hcic
                0x0000000000000000        0x4 ..\..\platform\libs\libplatform.a(main.o)
 .text.vhouse_cmd_dma_ack
                0x0000000000000000        0x4 ..\..\platform\libs\libplatform.a(main.o)
 .text.uart0_mapping_sel
                0x0000000000000000        0x2 ..\..\platform\libs\libplatform.a(main.o)
 .text.fcc_init_hook
                0x0000000000000000       0x1e ..\..\platform\libs\libplatform.a(main.o)
 .text.fcc_exit_hook
                0x0000000000000000       0x1e ..\..\platform\libs\libplatform.a(main.o)
 .text.bt_a2dp_avrcp_play_status_patch
                0x0000000000000000       0x30 ..\..\platform\libs\libplatform.a(main.o)
 .text.charge_detect_patch
                0x0000000000000000       0x3e ..\..\platform\libs\libplatform.a(main.o)
 .text.vusb_is_support_huart_en
                0x0000000000000000        0x4 ..\..\platform\libs\libplatform.a(main.o)
 .text.vusb_huart_set_patch
                0x0000000000000000       0x76 ..\..\platform\libs\libplatform.a(main.o)
 .text.dac_digvol_fade_patch
                0x0000000000000000       0x1e ..\..\platform\libs\libplatform.a(main.o)
 .text          0x0000000000000000        0x0 ..\..\platform\libs\libplatform.a(codecs_pcm.o)
 .data          0x0000000000000000        0x0 ..\..\platform\libs\libplatform.a(codecs_pcm.o)
 .bss           0x0000000000000000        0x0 ..\..\platform\libs\libplatform.a(codecs_pcm.o)
 .text.dbb      0x0000000000000000       0x4a ..\..\platform\libs\libplatform.a(codecs_pcm.o)
 .text.music_soft_gain_check
                0x0000000000000000       0x14 ..\..\platform\libs\libplatform.a(codecs_pcm.o)
 .text.sbc_pcm_out_start
                0x0000000000000000       0xc4 ..\..\platform\libs\libplatform.a(codecs_pcm.o)
 .text.dbb.init
                0x0000000000000000      0x258 ..\..\platform\libs\libplatform.a(codecs_pcm.o)
 .text.dbb.process
                0x0000000000000000      0x14a ..\..\platform\libs\libplatform.a(codecs_pcm.o)
 .com_text.sbccode
                0x0000000000000000       0x30 ..\..\platform\libs\libplatform.a(codecs_pcm.o)
 .text.aac_pcm_out_start
                0x0000000000000000       0xb6 ..\..\platform\libs\libplatform.a(codecs_pcm.o)
 .text.codec    0x0000000000000000       0x1e ..\..\platform\libs\libplatform.a(codecs_pcm.o)
 .bss.dbb_cb    0x0000000000000000        0xa ..\..\platform\libs\libplatform.a(codecs_pcm.o)
 .codecs_buf.pcm
                0x0000000000000000     0x1400 ..\..\platform\libs\libplatform.a(codecs_pcm.o)
 .sbss.msc_alg_cb
                0x0000000000000000        0x8 ..\..\platform\libs\libplatform.a(codecs_pcm.o)
 .sdata.bt_alg_dbb_on
                0x0000000000000000        0x1 ..\..\platform\libs\libplatform.a(codecs_pcm.o)
 .text.abb.rodata
                0x0000000000000000       0x30 ..\..\platform\libs\libplatform.a(codecs_pcm.o)
 .text          0x0000000000000000        0x0 ..\..\platform\libs\libplatform.a(s_dac.o)
 .data          0x0000000000000000        0x0 ..\..\platform\libs\libplatform.a(s_dac.o)
 .bss           0x0000000000000000        0x0 ..\..\platform\libs\libplatform.a(s_dac.o)
 .com_text.sbccode
                0x0000000000000000       0x68 ..\..\platform\libs\libplatform.a(s_dac.o)
 .debug_line    0x0000000000000000      0x101 ..\..\platform\libs\libplatform.a(s_dac.o)
 .debug_info    0x0000000000000000       0x26 ..\..\platform\libs\libplatform.a(s_dac.o)
 .debug_abbrev  0x0000000000000000       0x14 ..\..\platform\libs\libplatform.a(s_dac.o)
 .debug_aranges
                0x0000000000000000       0x20 ..\..\platform\libs\libplatform.a(s_dac.o)
 .debug_str     0x0000000000000000       0x90 ..\..\platform\libs\libplatform.a(s_dac.o)
 .riscv.attributes
                0x0000000000000000       0x30 ..\..\platform\libs\libplatform.a(s_dac.o)
 .text          0x0000000000000000        0x0 ..\..\platform\libs\libplatform.a(s_sys.o)
 .data          0x0000000000000000        0x0 ..\..\platform\libs\libplatform.a(s_sys.o)
 .bss           0x0000000000000000        0x0 ..\..\platform\libs\libplatform.a(s_sys.o)
 .com_text.stream.asm
                0x0000000000000000       0x20 ..\..\platform\libs\libplatform.a(s_sys.o)
 .debug_line    0x0000000000000000       0x9d ..\..\platform\libs\libplatform.a(s_sys.o)
 .debug_info    0x0000000000000000       0x26 ..\..\platform\libs\libplatform.a(s_sys.o)
 .debug_abbrev  0x0000000000000000       0x14 ..\..\platform\libs\libplatform.a(s_sys.o)
 .debug_aranges
                0x0000000000000000       0x20 ..\..\platform\libs\libplatform.a(s_sys.o)
 .debug_str     0x0000000000000000       0x90 ..\..\platform\libs\libplatform.a(s_sys.o)
 .riscv.attributes
                0x0000000000000000       0x30 ..\..\platform\libs\libplatform.a(s_sys.o)
 .text          0x0000000000000000        0x0 ..\..\platform\libs\libplatform.a(reset.o)
 .data          0x0000000000000000        0x0 ..\..\platform\libs\libplatform.a(reset.o)
 .bss           0x0000000000000000        0x0 ..\..\platform\libs\libplatform.a(reset.o)
 .text          0x0000000000000000        0x0 ..\..\platform\libs\libplatform.a(os_flash.o)
 .data          0x0000000000000000        0x0 ..\..\platform\libs\libplatform.a(os_flash.o)
 .bss           0x0000000000000000        0x0 ..\..\platform\libs\libplatform.a(os_flash.o)
 .text.dongle   0x0000000000000000       0x86 ..\..\platform\libs\libplatform.a(os_flash.o)
 .text          0x0000000000000000        0x0 ..\..\platform\libs\libplatform.a(charge.o)
 .data          0x0000000000000000        0x0 ..\..\platform\libs\libplatform.a(charge.o)
 .bss           0x0000000000000000        0x0 ..\..\platform\libs\libplatform.a(charge.o)
 .text          0x0000000000000000        0x0 ..\..\platform\libs\libplatform.a(debug.o)
 .data          0x0000000000000000        0x0 ..\..\platform\libs\libplatform.a(debug.o)
 .bss           0x0000000000000000        0x0 ..\..\platform\libs\libplatform.a(debug.o)
 .text.debug_dump_info_nanos_schedule
                0x0000000000000000        0x2 ..\..\platform\libs\libplatform.a(debug.o)
 .text.debug_dump_info_nanos_timer
                0x0000000000000000        0x2 ..\..\platform\libs\libplatform.a(debug.o)
 .text          0x0000000000000000        0x0 ..\..\platform\libs\libplatform.a(maskrom_func.o)
 .data          0x0000000000000000        0x0 ..\..\platform\libs\libplatform.a(maskrom_func.o)
 .bss           0x0000000000000000        0x0 ..\..\platform\libs\libplatform.a(maskrom_func.o)
 .riscv.attributes
                0x0000000000000000       0x30 ..\..\platform\libs\libplatform.a(maskrom_func.o)
 .text          0x0000000000000000        0x0 ..\..\platform\libs\libplatform.a(patch.o)
 .data          0x0000000000000000        0x0 ..\..\platform\libs\libplatform.a(patch.o)
 .bss           0x0000000000000000        0x0 ..\..\platform\libs\libplatform.a(patch.o)
 .text          0x0000000000000000        0x0 ..\..\platform\libs\libplatform.a(power.o)
 .data          0x0000000000000000        0x0 ..\..\platform\libs\libplatform.a(power.o)
 .bss           0x0000000000000000        0x0 ..\..\platform\libs\libplatform.a(power.o)
 .text          0x0000000000000000        0x0 ..\..\platform\libs\libplatform.a(qtest.o)
 .data          0x0000000000000000        0x0 ..\..\platform\libs\libplatform.a(qtest.o)
 .bss           0x0000000000000000        0x0 ..\..\platform\libs\libplatform.a(qtest.o)
 .text.vusb_check_tws_master_addr
                0x0000000000000000        0x8 ..\..\platform\libs\libplatform.a(qtest.o)
 .text.qtest    0x0000000000000000      0x6f0 ..\..\platform\libs\libplatform.a(qtest.o)
 .text.qtest_tbox_set_custom_param
                0x0000000000000000        0x2 ..\..\platform\libs\libplatform.a(qtest.o)
 .text.qtest_feature_is_btdisconnet_rst
                0x0000000000000000       0x10 ..\..\platform\libs\libplatform.a(qtest.o)
 .rodata.bt_update_qtest_tws_info.str1.4
                0x0000000000000000        0x5 ..\..\platform\libs\libplatform.a(qtest.o)
 .text.bt_update_qtest_tws_info
                0x0000000000000000       0x6a ..\..\platform\libs\libplatform.a(qtest.o)
 .rodata.qtest.str1.4
                0x0000000000000000        0xd ..\..\platform\libs\libplatform.a(qtest.o)
 .text.qtest_dma_send_msg2tbox
                0x0000000000000000       0x4e ..\..\platform\libs\libplatform.a(qtest.o)
 .text.update.qtest
                0x0000000000000000       0xd0 ..\..\platform\libs\libplatform.a(qtest.o)
 .qtest_buf     0x0000000000000000      0x2ac ..\..\platform\libs\libplatform.a(qtest.o)
 .rodata.qtest.tbl
                0x0000000000000000       0xa8 ..\..\platform\libs\libplatform.a(qtest.o)
 .sbss.qtest_check_code
                0x0000000000000000        0x4 ..\..\platform\libs\libplatform.a(qtest.o)
 .text          0x0000000000000000        0x0 ..\..\platform\libs\libplatform.a(sys_hook.o)
 .data          0x0000000000000000        0x0 ..\..\platform\libs\libplatform.a(sys_hook.o)
 .bss           0x0000000000000000        0x0 ..\..\platform\libs\libplatform.a(sys_hook.o)
 .com_text.hook
                0x0000000000000000        0x4 ..\..\platform\libs\libplatform.a(sys_hook.o)
 .text.sys_dhook_func
                0x0000000000000000      0x200 ..\..\platform\libs\libplatform.a(sys_hook.o)
 .text.ble_get_adv_data_hook
                0x0000000000000000        0x4 ..\..\platform\libs\libplatform.a(sys_hook.o)
 .text.dhook_func_set
                0x0000000000000000       0x12 ..\..\platform\libs\libplatform.a(sys_hook.o)
 .text          0x0000000000000000        0x0 ..\..\platform\libs\libplatform.a(voltage_trim.o)
 .data          0x0000000000000000        0x0 ..\..\platform\libs\libplatform.a(voltage_trim.o)
 .bss           0x0000000000000000        0x0 ..\..\platform\libs\libplatform.a(voltage_trim.o)
 .text          0x0000000000000000        0x0 ..\..\platform\libs\libplatform.a(interrupt.o)
 .data          0x0000000000000000        0x0 ..\..\platform\libs\libplatform.a(interrupt.o)
 .bss           0x0000000000000000        0x0 ..\..\platform\libs\libplatform.a(interrupt.o)
 .text.sys_irq_init
                0x0000000000000000       0x96 ..\..\platform\libs\libplatform.a(interrupt.o)
 .text          0x0000000000000000        0x0 ..\..\platform\libs\libplatform.a(startup.o)
 .data          0x0000000000000000        0x0 ..\..\platform\libs\libplatform.a(startup.o)
 .bss           0x0000000000000000        0x0 ..\..\platform\libs\libplatform.a(startup.o)
 .text          0x0000000000000000        0x0 ..\..\platform\libs\libplatform.a(music.o)
 .data          0x0000000000000000        0x0 ..\..\platform\libs\libplatform.a(music.o)
 .bss           0x0000000000000000        0x0 ..\..\platform\libs\libplatform.a(music.o)
 .com_text.mav  0x0000000000000000       0x32 ..\..\platform\libs\libplatform.a(music.o)
 .text          0x0000000000000000        0x0 ..\..\platform\libs\libplatform.a(sys.o)
 .data          0x0000000000000000        0x0 ..\..\platform\libs\libplatform.a(sys.o)
 .bss           0x0000000000000000        0x0 ..\..\platform\libs\libplatform.a(sys.o)
 .text.dbg_clk_out
                0x0000000000000000       0x52 ..\..\platform\libs\libplatform.a(sys.o)
 .text.dongle   0x0000000000000000      0x16e ..\..\platform\libs\libplatform.a(sys.o)
 .rodata.dongle.str1.4
                0x0000000000000000       0x39 ..\..\platform\libs\libplatform.a(sys.o)
 .dongle_buf    0x0000000000000000      0x100 ..\..\platform\libs\libplatform.a(sys.o)
 .text          0x0000000000000000        0x0 ..\..\platform\libs\libplatform.a(sys_clk.o)
 .data          0x0000000000000000        0x0 ..\..\platform\libs\libplatform.a(sys_clk.o)
 .bss           0x0000000000000000        0x0 ..\..\platform\libs\libplatform.a(sys_clk.o)
 .text          0x0000000000000000        0x0 ..\..\platform\libs\libplatform.a(sha256.o)
 .data          0x0000000000000000        0x0 ..\..\platform\libs\libplatform.a(sha256.o)
 .bss           0x0000000000000000        0x0 ..\..\platform\libs\libplatform.a(sha256.o)
 .text.sha256_transf
                0x0000000000000000     0x24b8 ..\..\platform\libs\libplatform.a(sha256.o)
 .text.sha256_init
                0x0000000000000000       0x6a ..\..\platform\libs\libplatform.a(sha256.o)
 .text.sha256_update
                0x0000000000000000       0x92 ..\..\platform\libs\libplatform.a(sha256.o)
 .text.sha256_final
                0x0000000000000000      0x104 ..\..\platform\libs\libplatform.a(sha256.o)
 .text.sha256_noPad
                0x0000000000000000       0x2e ..\..\platform\libs\libplatform.a(sha256.o)
 .rodata.sha256_h0
                0x0000000000000000       0x20 ..\..\platform\libs\libplatform.a(sha256.o)
 .rodata.sha256_k
                0x0000000000000000      0x100 ..\..\platform\libs\libplatform.a(sha256.o)
 .debug_info    0x0000000000000000      0x445 ..\..\platform\libs\libplatform.a(sha256.o)
 .debug_abbrev  0x0000000000000000      0x1a5 ..\..\platform\libs\libplatform.a(sha256.o)
 .debug_loc     0x0000000000000000     0x4a4d ..\..\platform\libs\libplatform.a(sha256.o)
 .debug_aranges
                0x0000000000000000       0x40 ..\..\platform\libs\libplatform.a(sha256.o)
 .debug_ranges  0x0000000000000000       0x30 ..\..\platform\libs\libplatform.a(sha256.o)
 .debug_line    0x0000000000000000     0x2256 ..\..\platform\libs\libplatform.a(sha256.o)
 .debug_str     0x0000000000000000      0x298 ..\..\platform\libs\libplatform.a(sha256.o)
 .comment       0x0000000000000000       0x13 ..\..\platform\libs\libplatform.a(sha256.o)
 .debug_frame   0x0000000000000000       0xd8 ..\..\platform\libs\libplatform.a(sha256.o)
 .riscv.attributes
                0x0000000000000000       0x32 ..\..\platform\libs\libplatform.a(sha256.o)
 .text          0x0000000000000000        0x0 ..\..\platform\libs\libbtstack.a(ext_tsco.o)
 .data          0x0000000000000000        0x0 ..\..\platform\libs\libbtstack.a(ext_tsco.o)
 .bss           0x0000000000000000        0x0 ..\..\platform\libs\libbtstack.a(ext_tsco.o)
 .text          0x0000000000000000        0x0 ..\..\platform\libs\libbtstack.a(lc.o)
 .data          0x0000000000000000        0x0 ..\..\platform\libs\libbtstack.a(lc.o)
 .bss           0x0000000000000000        0x0 ..\..\platform\libs\libbtstack.a(lc.o)
 .com_text.lmp.tx_dump
                0x0000000000000000        0x2 ..\..\platform\libs\libbtstack.a(lc.o)
 .com_text.lmp.rx_dump
                0x0000000000000000        0x2 ..\..\platform\libs\libbtstack.a(lc.o)
 .text          0x0000000000000000        0x0 ..\..\platform\libs\libbtstack.a(tws_acl.o)
 .data          0x0000000000000000        0x0 ..\..\platform\libs\libbtstack.a(tws_acl.o)
 .bss           0x0000000000000000        0x0 ..\..\platform\libs\libbtstack.a(tws_acl.o)
 .text          0x0000000000000000        0x0 ..\..\platform\libs\libbtstack.a(tws_switch.o)
 .data          0x0000000000000000        0x0 ..\..\platform\libs\libbtstack.a(tws_switch.o)
 .bss           0x0000000000000000        0x0 ..\..\platform\libs\libbtstack.a(tws_switch.o)
 .text.bt_check_snoop_rssi
                0x0000000000000000       0xfa ..\..\platform\libs\libbtstack.a(tws_switch.o)
 .sbss          0x0000000000000000        0xc ..\..\platform\libs\libbtstack.a(tws_switch.o)
 .text          0x0000000000000000        0x0 ..\..\platform\libs\libbtstack.a(rf.o)
 .data          0x0000000000000000        0x0 ..\..\platform\libs\libbtstack.a(rf.o)
 .bss           0x0000000000000000        0x0 ..\..\platform\libs\libbtstack.a(rf.o)
 .text          0x0000000000000000        0x0 ..\..\platform\libs\libbtstack.a(rf_viva.o)
 .data          0x0000000000000000        0x0 ..\..\platform\libs\libbtstack.a(rf_viva.o)
 .bss           0x0000000000000000        0x0 ..\..\platform\libs\libbtstack.a(rf_viva.o)
 .text.bias_en_pll_afc
                0x0000000000000000        0x8 ..\..\platform\libs\libbtstack.a(rf_viva.o)
 .text.bias_en_pll_idle
                0x0000000000000000        0x8 ..\..\platform\libs\libbtstack.a(rf_viva.o)
 .text.bias_en_tx
                0x0000000000000000       0x14 ..\..\platform\libs\libbtstack.a(rf_viva.o)
 .text.bias_en_rx_bq_dcoc
                0x0000000000000000        0x8 ..\..\platform\libs\libbtstack.a(rf_viva.o)
 .text.bias_en_rx_lpf_dcoc
                0x0000000000000000        0x8 ..\..\platform\libs\libbtstack.a(rf_viva.o)
 .text.bias_en_rx_rc_trim
                0x0000000000000000       0x14 ..\..\platform\libs\libbtstack.a(rf_viva.o)
 .text.bias_en_t2r
                0x0000000000000000       0x10 ..\..\platform\libs\libbtstack.a(rf_viva.o)
 .text.sx_en_pll_afc
                0x0000000000000000       0x2a ..\..\platform\libs\libbtstack.a(rf_viva.o)
 .text.sx_en_pll_idle
                0x0000000000000000       0x2a ..\..\platform\libs\libbtstack.a(rf_viva.o)
 .text.sx_en_tx
                0x0000000000000000       0x2a ..\..\platform\libs\libbtstack.a(rf_viva.o)
 .text.sx_en_rx_bq_dcoc
                0x0000000000000000        0x8 ..\..\platform\libs\libbtstack.a(rf_viva.o)
 .text.sx_en_rx_lpf_dcoc
                0x0000000000000000        0x8 ..\..\platform\libs\libbtstack.a(rf_viva.o)
 .text.sx_en_t2r
                0x0000000000000000       0x26 ..\..\platform\libs\libbtstack.a(rf_viva.o)
 .text.sx_en_tx_dcoc
                0x0000000000000000        0x8 ..\..\platform\libs\libbtstack.a(rf_viva.o)
 .text.rx_en_pll_afc
                0x0000000000000000        0x8 ..\..\platform\libs\libbtstack.a(rf_viva.o)
 .text.rx_en_pll_idle
                0x0000000000000000        0x8 ..\..\platform\libs\libbtstack.a(rf_viva.o)
 .text.rx_en_rx
                0x0000000000000000       0x48 ..\..\platform\libs\libbtstack.a(rf_viva.o)
 .text.rx_en_tx
                0x0000000000000000        0x8 ..\..\platform\libs\libbtstack.a(rf_viva.o)
 .text.rx_en_rx_lpf_dcoc
                0x0000000000000000        0x8 ..\..\platform\libs\libbtstack.a(rf_viva.o)
 .text.rx_en_rx_rc_trim
                0x0000000000000000        0x8 ..\..\platform\libs\libbtstack.a(rf_viva.o)
 .text.rx_en_t2r
                0x0000000000000000       0x4c ..\..\platform\libs\libbtstack.a(rf_viva.o)
 .text.rx_en_tx_dcoc
                0x0000000000000000        0x8 ..\..\platform\libs\libbtstack.a(rf_viva.o)
 .text.tx_en_pll_afc
                0x0000000000000000        0x8 ..\..\platform\libs\libbtstack.a(rf_viva.o)
 .text.tx_en_pll_idle
                0x0000000000000000        0x8 ..\..\platform\libs\libbtstack.a(rf_viva.o)
 .text.tx_en_rx
                0x0000000000000000        0x8 ..\..\platform\libs\libbtstack.a(rf_viva.o)
 .text.tx_en_tx
                0x0000000000000000       0x28 ..\..\platform\libs\libbtstack.a(rf_viva.o)
 .text.tx_en_rx_bq_dcoc
                0x0000000000000000        0x8 ..\..\platform\libs\libbtstack.a(rf_viva.o)
 .text.tx_en_rx_lpf_dcoc
                0x0000000000000000        0x8 ..\..\platform\libs\libbtstack.a(rf_viva.o)
 .text.tx_en_rx_rc_trim
                0x0000000000000000        0x8 ..\..\platform\libs\libbtstack.a(rf_viva.o)
 .text.tx_en_t2r
                0x0000000000000000       0x28 ..\..\platform\libs\libbtstack.a(rf_viva.o)
 .text.pll_afc_state
                0x0000000000000000       0x30 ..\..\platform\libs\libbtstack.a(rf_viva.o)
 .text.pll_idle_state
                0x0000000000000000       0x30 ..\..\platform\libs\libbtstack.a(rf_viva.o)
 .text.rx_bq_dcoc_state
                0x0000000000000000       0x30 ..\..\platform\libs\libbtstack.a(rf_viva.o)
 .text.rx_lpf_dcoc_state
                0x0000000000000000        0x8 ..\..\platform\libs\libbtstack.a(rf_viva.o)
 .text.rx_rc_trim_state
                0x0000000000000000       0x30 ..\..\platform\libs\libbtstack.a(rf_viva.o)
 .text.tx_dcoc_state
                0x0000000000000000       0x30 ..\..\platform\libs\libbtstack.a(rf_viva.o)
 .text.rx_state
                0x0000000000000000       0x30 ..\..\platform\libs\libbtstack.a(rf_viva.o)
 .text.tx_state
                0x0000000000000000       0x30 ..\..\platform\libs\libbtstack.a(rf_viva.o)
 .text.rfphy_pll_afc
                0x0000000000000000       0x52 ..\..\platform\libs\libbtstack.a(rf_viva.o)
 .text.rfphy_tx_tone
                0x0000000000000000       0x8c ..\..\platform\libs\libbtstack.a(rf_viva.o)
 .text.rfphy_tx_pwr
                0x0000000000000000       0x4c ..\..\platform\libs\libbtstack.a(rf_viva.o)
 .text.rfphy_sw_ctrl
                0x0000000000000000       0x16 ..\..\platform\libs\libbtstack.a(rf_viva.o)
 .text.rfphy_tx_channel
                0x0000000000000000        0x2 ..\..\platform\libs\libbtstack.a(rf_viva.o)
 .text.rfphy_test
                0x0000000000000000        0x2 ..\..\platform\libs\libbtstack.a(rf_viva.o)
 .text.rf_current_supply
                0x0000000000000000       0x74 ..\..\platform\libs\libbtstack.a(rf_viva.o)
 .text.rf_current_recover
                0x0000000000000000       0x46 ..\..\platform\libs\libbtstack.a(rf_viva.o)
 .text.bt_set_reconnect_txpwr
                0x0000000000000000       0x10 ..\..\platform\libs\libbtstack.a(rf_viva.o)
 .text.rf_txpwr_set
                0x0000000000000000       0x6e ..\..\platform\libs\libbtstack.a(rf_viva.o)
 .sbss          0x0000000000000000       0x14 ..\..\platform\libs\libbtstack.a(rf_viva.o)
 .text          0x0000000000000000        0x0 ..\..\platform\libs\libbtstack.a(bt_api.o)
 .data          0x0000000000000000        0x0 ..\..\platform\libs\libbtstack.a(bt_api.o)
 .bss           0x0000000000000000        0x0 ..\..\platform\libs\libbtstack.a(bt_api.o)
 .text.bt_set_scan_param
                0x0000000000000000       0x1a ..\..\platform\libs\libbtstack.a(bt_api.o)
 .text.bt_tws_put_link_info_addr2
                0x0000000000000000       0x74 ..\..\platform\libs\libbtstack.a(bt_api.o)
 .com_text.bb   0x0000000000000000       0x14 ..\..\platform\libs\libbtstack.a(bt_api.o)
 .rodata.str1.4
                0x0000000000000000        0x4 ..\..\platform\libs\libbtstack.a(bt_api.o)
 .text.bt_map_start
                0x0000000000000000       0x34 ..\..\platform\libs\libbtstack.a(bt_api.o)
 .text.bt_map_abort
                0x0000000000000000        0xc ..\..\platform\libs\libbtstack.a(bt_api.o)
 .rodata        0x0000000000000000        0xd ..\..\platform\libs\libbtstack.a(bt_api.o)
 .text          0x0000000000000000        0x0 ..\..\platform\libs\libbtstack.a(btstack_api.o)
 .data          0x0000000000000000        0x0 ..\..\platform\libs\libbtstack.a(btstack_api.o)
 .text.btmdm_enable
                0x0000000000000000       0x34 ..\..\platform\libs\libbtstack.a(btstack_api.o)
 .text.btmdm_disable
                0x0000000000000000       0x26 ..\..\platform\libs\libbtstack.a(btstack_api.o)
 .text.btstack_tws_remote_send_nor_reconnect
                0x0000000000000000       0x72 ..\..\platform\libs\libbtstack.a(btstack_api.o)
 .text.btstack_popup_ctrl
                0x0000000000000000       0xe0 ..\..\platform\libs\libbtstack.a(btstack_api.o)
 .text.stack.status
                0x0000000000000000      0x400 ..\..\platform\libs\libbtstack.a(btstack_api.o)
 .text          0x0000000000000000        0x0 ..\..\platform\libs\libbtstack.a(btstack_main.o)
 .data          0x0000000000000000        0x0 ..\..\platform\libs\libbtstack.a(btstack_main.o)
 .bss           0x0000000000000000        0x0 ..\..\platform\libs\libbtstack.a(btstack_main.o)
 .text          0x0000000000000000        0x0 ..\..\platform\libs\libbtstack.a(weak_symbol.o)
 .data          0x0000000000000000        0x0 ..\..\platform\libs\libbtstack.a(weak_symbol.o)
 .bss           0x0000000000000000        0x0 ..\..\platform\libs\libbtstack.a(weak_symbol.o)
 .text.bt_hid_get_compatibility
                0x0000000000000000        0xc ..\..\platform\libs\libbtstack.a(weak_symbol.o)
 .text.hfp_get_outgoing_number
                0x0000000000000000        0xa ..\..\platform\libs\libbtstack.a(weak_symbol.o)
 .text.bt_get_connect_addr
                0x0000000000000000        0x4 ..\..\platform\libs\libbtstack.a(weak_symbol.o)
 .text.bt_get_model_number
                0x0000000000000000        0x4 ..\..\platform\libs\libbtstack.a(weak_symbol.o)
 .text.bt_get_fw_version
                0x0000000000000000        0x4 ..\..\platform\libs\libbtstack.a(weak_symbol.o)
 .text.bt_get_serial_number
                0x0000000000000000        0x4 ..\..\platform\libs\libbtstack.a(weak_symbol.o)
 .text.bt_get_ch_serial_number
                0x0000000000000000       0x16 ..\..\platform\libs\libbtstack.a(weak_symbol.o)
 .text.bt_inear_test
                0x0000000000000000       0x30 ..\..\platform\libs\libbtstack.a(weak_symbol.o)
 .text.ble_att_write_callback
                0x0000000000000000        0x4 ..\..\platform\libs\libbtstack.a(weak_symbol.o)
 .text.ble_att_read_callback
                0x0000000000000000        0x4 ..\..\platform\libs\libbtstack.a(weak_symbol.o)
 .text.ble_client_cfg_callback
                0x0000000000000000        0x2 ..\..\platform\libs\libbtstack.a(weak_symbol.o)
 .text.bt_3d_siri_callback
                0x0000000000000000        0x2 ..\..\platform\libs\libbtstack.a(weak_symbol.o)
 .text.bt_play_pause_siri_ctrl_dis
                0x0000000000000000        0x4 ..\..\platform\libs\libbtstack.a(weak_symbol.o)
 .text.bt_tws_get_search_slave_times
                0x0000000000000000        0x4 ..\..\platform\libs\libbtstack.a(weak_symbol.o)
 .text.bt_hid_shutter_oppo_is_enable
                0x0000000000000000        0x4 ..\..\platform\libs\libbtstack.a(weak_symbol.o)
 .text.bt_get_channel_mac_addr
                0x0000000000000000        0x2 ..\..\platform\libs\libbtstack.a(weak_symbol.o)
 .text.aap_notifiy_sel_do
                0x0000000000000000        0x2 ..\..\platform\libs\libbtstack.a(weak_symbol.o)
 .text.bt_get_a2dp_aac_max_bitrate
                0x0000000000000000        0x4 ..\..\platform\libs\libbtstack.a(weak_symbol.o)
 .text.a2dp_set_aac_max_bitrate
                0x0000000000000000       0x22 ..\..\platform\libs\libbtstack.a(weak_symbol.o)
 .text.bt_low_latency_is_busy
                0x0000000000000000       0x12 ..\..\platform\libs\libbtstack.a(weak_symbol.o)
 .text.bt_low_latency_set_busy
                0x0000000000000000       0x10 ..\..\platform\libs\libbtstack.a(weak_symbol.o)
 .text.bt_low_latency_clr_busy
                0x0000000000000000        0xe ..\..\platform\libs\libbtstack.a(weak_symbol.o)
 .text.bt_map_data_callback
                0x0000000000000000        0x2 ..\..\platform\libs\libbtstack.a(weak_symbol.o)
 .text          0x0000000000000000        0x0 ..\..\platform\libs\libbtstack.a(btstack.o)
 .data          0x0000000000000000        0x0 ..\..\platform\libs\libbtstack.a(btstack.o)
 .bss           0x0000000000000000       0x10 ..\..\platform\libs\libbtstack.a(btstack.o)
 .com_text.dummy
                0x0000000000000000        0x4 ..\..\platform\libs\libbtstack.a(btstack.o)
 .text.fcc      0x0000000000000000      0x45c ..\..\platform\libs\libbtstack.a(btstack.o)
 .text.bt_rf_get_fcc_param
                0x0000000000000000        0x4 ..\..\platform\libs\libbtstack.a(btstack.o)
 .rodata.str1.4
                0x0000000000000000       0x12 ..\..\platform\libs\libbtstack.a(btstack.o)
 .com_text.hfp.rx_dump
                0x0000000000000000        0x2 ..\..\platform\libs\libbtstack.a(btstack.o)
 .com_text.hfp.tx_dump
                0x0000000000000000        0x2 ..\..\platform\libs\libbtstack.a(btstack.o)
 .text          0x0000000000000000        0x0 ..\..\platform\libs\libbtstack.a(btstack_popup.o)
 .data          0x0000000000000000        0x0 ..\..\platform\libs\libbtstack.a(btstack_popup.o)
 .bss           0x0000000000000000        0x0 ..\..\platform\libs\libbtstack.a(btstack_popup.o)
 .text.get_percent
                0x0000000000000000       0x1e ..\..\platform\libs\libbtstack.a(btstack_popup.o)
 .text.le_get_popup_type
                0x0000000000000000        0xe ..\..\platform\libs\libbtstack.a(btstack_popup.o)
 .text.ble_popup_get_type
                0x0000000000000000       0x28 ..\..\platform\libs\libbtstack.a(btstack_popup.o)
 .text.le_popup_lr_sta_separation_en
                0x0000000000000000        0x4 ..\..\platform\libs\libbtstack.a(btstack_popup.o)
 .text.ble_popup_get_color_sel
                0x0000000000000000        0xc ..\..\platform\libs\libbtstack.a(btstack_popup.o)
 .text.ble_get_adv1_data
                0x0000000000000000      0x2a2 ..\..\platform\libs\libbtstack.a(btstack_popup.o)
 .text.ble_get_adv2_data
                0x0000000000000000       0xfa ..\..\platform\libs\libbtstack.a(btstack_popup.o)
 .text.ble_house_ctrl_callback
                0x0000000000000000       0xe4 ..\..\platform\libs\libbtstack.a(btstack_popup.o)
 .text.ble_house_adv_init
                0x0000000000000000       0xa8 ..\..\platform\libs\libbtstack.a(btstack_popup.o)
 .rodata        0x0000000000000000       0x1f ..\..\platform\libs\libbtstack.a(btstack_popup.o)
 .rodata.house  0x0000000000000000        0xd ..\..\platform\libs\libbtstack.a(btstack_popup.o)
 .comment       0x0000000000000000       0x13 ..\..\platform\libs\libbtstack.a(btstack_popup.o)
 .riscv.attributes
                0x0000000000000000       0x32 ..\..\platform\libs\libbtstack.a(btstack_popup.o)
 .text          0x0000000000000000        0x0 ..\..\platform\libs\libbtstack.a(btstack_run_loop.o)
 .data          0x0000000000000000        0x0 ..\..\platform\libs\libbtstack.a(btstack_run_loop.o)
 .bss           0x0000000000000000        0x0 ..\..\platform\libs\libbtstack.a(btstack_run_loop.o)
 .text          0x0000000000000000        0x0 ..\..\platform\libs\libbtstack.a(a2dp_play.o)
 .data          0x0000000000000000        0x0 ..\..\platform\libs\libbtstack.a(a2dp_play.o)
 .bss           0x0000000000000000        0x0 ..\..\platform\libs\libbtstack.a(a2dp_play.o)
 .text          0x0000000000000000        0x0 ..\..\platform\libs\libbtstack.a(aap_server.o)
 .data          0x0000000000000000        0x0 ..\..\platform\libs\libbtstack.a(aap_server.o)
 .bss           0x0000000000000000        0x0 ..\..\platform\libs\libbtstack.a(aap_server.o)
 .text.aap_ear_sta_timeover
                0x0000000000000000       0x8e ..\..\platform\libs\libbtstack.a(aap_server.o)
 .text.aap_packet_handler_timeout
                0x0000000000000000       0x36 ..\..\platform\libs\libbtstack.a(aap_server.o)
 .text.aap_is_connected
                0x0000000000000000       0x20 ..\..\platform\libs\libbtstack.a(aap_server.o)
 .text.aap_release_connection
                0x0000000000000000       0x2c ..\..\platform\libs\libbtstack.a(aap_server.o)
 .text.aap_get_snoop_sta
                0x0000000000000000       0x66 ..\..\platform\libs\libbtstack.a(aap_server.o)
 .text.aap_set_snoop_sta
                0x0000000000000000       0x9a ..\..\platform\libs\libbtstack.a(aap_server.o)
 .text.get_aap_connect_context_for_bd_addr
                0x0000000000000000       0x58 ..\..\platform\libs\libbtstack.a(aap_server.o)
 .text.get_aap_connect_context_for_l2cap_cid
                0x0000000000000000       0x2c ..\..\platform\libs\libbtstack.a(aap_server.o)
 .text.get_aap_connection_context_for_handle
                0x0000000000000000       0x2c ..\..\platform\libs\libbtstack.a(aap_server.o)
 .text.create_aap_connect_context
                0x0000000000000000       0x8a ..\..\platform\libs\libbtstack.a(aap_server.o)
 .text.provide_aap_connect_context_for_bd_addr
                0x0000000000000000       0x3c ..\..\platform\libs\libbtstack.a(aap_server.o)
 .text.handle_query_aap_event
                0x0000000000000000       0x90 ..\..\platform\libs\libbtstack.a(aap_server.o)
 .text.aap_report_bat_state_do
                0x0000000000000000       0x50 ..\..\platform\libs\libbtstack.a(aap_server.o)
 .text.aap_report_ear_state_do
                0x0000000000000000       0x34 ..\..\platform\libs\libbtstack.a(aap_server.o)
 .text.aap_report_bat_state
                0x0000000000000000       0x58 ..\..\platform\libs\libbtstack.a(aap_server.o)
 .rodata.str1.4
                0x0000000000000000        0x5 ..\..\platform\libs\libbtstack.a(aap_server.o)
 .text.aap_cal_fw_version
                0x0000000000000000      0x128 ..\..\platform\libs\libbtstack.a(aap_server.o)
 .text.aap_send
                0x0000000000000000      0x478 ..\..\platform\libs\libbtstack.a(aap_server.o)
 .text.aap_notifiy_sel
                0x0000000000000000       0x40 ..\..\platform\libs\libbtstack.a(aap_server.o)
 .text.aap_search_os_capacity
                0x0000000000000000       0x38 ..\..\platform\libs\libbtstack.a(aap_server.o)
 .text.aap_emit_operation
                0x0000000000000000      0x198 ..\..\platform\libs\libbtstack.a(aap_server.o)
 .text.aap_packet_handler
                0x0000000000000000      0x3b0 ..\..\platform\libs\libbtstack.a(aap_server.o)
 .text.aap_set_menu_type
                0x0000000000000000       0x14 ..\..\platform\libs\libbtstack.a(aap_server.o)
 .text.aap_init_var
                0x0000000000000000       0x62 ..\..\platform\libs\libbtstack.a(aap_server.o)
 .text.aap_init
                0x0000000000000000      0x108 ..\..\platform\libs\libbtstack.a(aap_server.o)
 .rodata        0x0000000000000000      0x15c ..\..\platform\libs\libbtstack.a(aap_server.o)
 .rodata.aap    0x0000000000000000       0x10 ..\..\platform\libs\libbtstack.a(aap_server.o)
 .rodata.search.uuid
                0x0000000000000000       0x10 ..\..\platform\libs\libbtstack.a(aap_server.o)
 .rodata.stack.a2dp
                0x0000000000000000      0x11c ..\..\platform\libs\libbtstack.a(aap_server.o)
 .rodata.stack.avctp
                0x0000000000000000        0xc ..\..\platform\libs\libbtstack.a(aap_server.o)
 .sbss          0x0000000000000000        0xb ..\..\platform\libs\libbtstack.a(aap_server.o)
 .text          0x0000000000000000        0x0 ..\..\platform\libs\libbtstack.a(avctp.o)
 .data          0x0000000000000000        0x0 ..\..\platform\libs\libbtstack.a(avctp.o)
 .bss           0x0000000000000000        0x0 ..\..\platform\libs\libbtstack.a(avctp.o)
 .text.bt_a2dp_vol_ctrl_is_enable
                0x0000000000000000       0x34 ..\..\platform\libs\libbtstack.a(avctp.o)
 .text          0x0000000000000000        0x0 ..\..\platform\libs\libbtstack.a(avdtp.o)
 .data          0x0000000000000000        0x0 ..\..\platform\libs\libbtstack.a(avdtp.o)
 .bss           0x0000000000000000        0x0 ..\..\platform\libs\libbtstack.a(avdtp.o)
 .text.avdtp_open_send_delay_handler
                0x0000000000000000       0x34 ..\..\platform\libs\libbtstack.a(avdtp.o)
 .text.avdtp_open_send_delay
                0x0000000000000000       0x62 ..\..\platform\libs\libbtstack.a(avdtp.o)
 .text.avdtp_set_configuration_rsp_hook
                0x0000000000000000       0xbe ..\..\platform\libs\libbtstack.a(avdtp.o)
 .text          0x0000000000000000        0x0 ..\..\platform\libs\libbtstack.a(btstack_link_key_db.o)
 .data          0x0000000000000000        0x0 ..\..\platform\libs\libbtstack.a(btstack_link_key_db.o)
 .bss           0x0000000000000000        0x0 ..\..\platform\libs\libbtstack.a(btstack_link_key_db.o)
 .text          0x0000000000000000        0x0 ..\..\platform\libs\libbtstack.a(goep_client.o)
 .data          0x0000000000000000        0x0 ..\..\platform\libs\libbtstack.a(goep_client.o)
 .bss           0x0000000000000000        0x0 ..\..\platform\libs\libbtstack.a(goep_client.o)
 .text.goep_client_init
                0x0000000000000000       0x4e ..\..\platform\libs\libbtstack.a(goep_client.o)
 .text.goep_client_rfcomm_register_init
                0x0000000000000000       0x16 ..\..\platform\libs\libbtstack.a(goep_client.o)
 .text.goep_client_create_connection
                0x0000000000000000       0x56 ..\..\platform\libs\libbtstack.a(goep_client.o)
 .text.goep_client_version_20_or_higher
                0x0000000000000000       0x26 ..\..\platform\libs\libbtstack.a(goep_client.o)
 .text          0x0000000000000000        0x0 ..\..\platform\libs\libbtstack.a(hfp_hf.o)
 .data          0x0000000000000000        0x0 ..\..\platform\libs\libbtstack.a(hfp_hf.o)
 .bss           0x0000000000000000        0x0 ..\..\platform\libs\libbtstack.a(hfp_hf.o)
 .text          0x0000000000000000        0x0 ..\..\platform\libs\libbtstack.a(map_client.o)
 .data          0x0000000000000000        0x0 ..\..\platform\libs\libbtstack.a(map_client.o)
 .text.stack.util
                0x0000000000000000        0x6 ..\..\platform\libs\libbtstack.a(map_client.o)
 .text.map_client_init
                0x0000000000000000       0x3a ..\..\platform\libs\libbtstack.a(map_client.o)
 .text.map_client_connect
                0x0000000000000000       0x7a ..\..\platform\libs\libbtstack.a(map_client.o)
 .text.map_client_disconnect
                0x0000000000000000       0x38 ..\..\platform\libs\libbtstack.a(map_client.o)
 .text.map_client_set_path
                0x0000000000000000       0x3e ..\..\platform\libs\libbtstack.a(map_client.o)
 .text.map_client_enable_notifications
                0x0000000000000000       0x3e ..\..\platform\libs\libbtstack.a(map_client.o)
 .text.map_client_disable_notifications
                0x0000000000000000       0x3c ..\..\platform\libs\libbtstack.a(map_client.o)
 .text.btstack_map
                0x0000000000000000       0xb4 ..\..\platform\libs\libbtstack.a(map_client.o)
 .com_text.btmem.pbap
                0x0000000000000000        0x8 ..\..\platform\libs\libbtstack.a(map_client.o)
 .text          0x0000000000000000        0x0 ..\..\platform\libs\libbtstack.a(obex_iterator.o)
 .data          0x0000000000000000        0x0 ..\..\platform\libs\libbtstack.a(obex_iterator.o)
 .bss           0x0000000000000000        0x0 ..\..\platform\libs\libbtstack.a(obex_iterator.o)
 .text.obex_iterator_get_data_8
                0x0000000000000000        0xe ..\..\platform\libs\libbtstack.a(obex_iterator.o)
 .text          0x0000000000000000        0x0 ..\..\platform\libs\libbtstack.a(sdp_tbl.o)
 .data          0x0000000000000000        0x0 ..\..\platform\libs\libbtstack.a(sdp_tbl.o)
 .bss           0x0000000000000000        0x0 ..\..\platform\libs\libbtstack.a(sdp_tbl.o)
 .rodata.sdp.tbl.aap
                0x0000000000000000      0x1c5 ..\..\platform\libs\libbtstack.a(sdp_tbl.o)
 .rodata.sdp.tbl.aap_max
                0x0000000000000000       0x95 ..\..\platform\libs\libbtstack.a(sdp_tbl.o)
 .rodata.sdp.tbl.hid
                0x0000000000000000      0x20f ..\..\platform\libs\libbtstack.a(sdp_tbl.o)
 .rodata.sdp.tbl.hid_douyin
                0x0000000000000000      0x16f ..\..\platform\libs\libbtstack.a(sdp_tbl.o)
 .rodata.sdp.tbl.hid_pnp
                0x0000000000000000       0x5d ..\..\platform\libs\libbtstack.a(sdp_tbl.o)
 .rodata.sdp.tbl.pnp
                0x0000000000000000      0x139 ..\..\platform\libs\libbtstack.a(sdp_tbl.o)
 .rodata.sdp.tbl.pnp.pb
                0x0000000000000000       0xa2 ..\..\platform\libs\libbtstack.a(sdp_tbl.o)
 .rodata.sdp.tbl.pnp4
                0x0000000000000000      0x145 ..\..\platform\libs\libbtstack.a(sdp_tbl.o)
 .rodata.sdp.tbl.pnp5
                0x0000000000000000       0xa1 ..\..\platform\libs\libbtstack.a(sdp_tbl.o)
 .rodata.sdp.tbl.pnp_max
                0x0000000000000000       0xa1 ..\..\platform\libs\libbtstack.a(sdp_tbl.o)
 .rodata.sdp.tbl.sdss
                0x0000000000000000      0x16e ..\..\platform\libs\libbtstack.a(sdp_tbl.o)
 .rodata.sdp.tbl.sdss.max
                0x0000000000000000       0xb6 ..\..\platform\libs\libbtstack.a(sdp_tbl.o)
 .rodata.sdp.tbl.sdss.pb
                0x0000000000000000       0xb6 ..\..\platform\libs\libbtstack.a(sdp_tbl.o)
 .text          0x0000000000000000        0x0 ..\..\platform\libs\libbtstack.a(hci.o)
 .data          0x0000000000000000        0x0 ..\..\platform\libs\libbtstack.a(hci.o)
 .bss           0x0000000000000000        0x0 ..\..\platform\libs\libbtstack.a(hci.o)
 .text.hci_alloc_num_packets_sent
                0x0000000000000000       0x48 ..\..\platform\libs\libbtstack.a(hci.o)
 .text          0x0000000000000000        0x0 ..\..\platform\libs\libbtstack.a(hci_dump.o)
 .data          0x0000000000000000        0x0 ..\..\platform\libs\libbtstack.a(hci_dump.o)
 .bss           0x0000000000000000        0x0 ..\..\platform\libs\libbtstack.a(hci_dump.o)
 .rodata.str1.4
                0x0000000000000000        0x3 ..\..\platform\libs\libbtstack.a(hci_dump.o)
 .text.printf_packet_do
                0x0000000000000000       0x32 ..\..\platform\libs\libbtstack.a(hci_dump.o)
 .text          0x0000000000000000        0x0 ..\..\platform\libs\libbtstack.a(hci_transport_h3_controller.o)
 .data          0x0000000000000000        0x0 ..\..\platform\libs\libbtstack.a(hci_transport_h3_controller.o)
 .bss           0x0000000000000000        0x0 ..\..\platform\libs\libbtstack.a(hci_transport_h3_controller.o)
 .text.stack.h3c
                0x0000000000000000      0x13a ..\..\platform\libs\libbtstack.a(hci_transport_h3_controller.o)
 .text.stack.uart_isr
                0x0000000000000000      0x190 ..\..\platform\libs\libbtstack.a(hci_transport_h3_controller.o)
 .text.stack.uart_rec
                0x0000000000000000       0x10 ..\..\platform\libs\libbtstack.a(hci_transport_h3_controller.o)
 .fcc_buf       0x0000000000000000      0x418 ..\..\platform\libs\libbtstack.a(hci_transport_h3_controller.o)
 .huart_buf     0x0000000000000000        0x6 ..\..\platform\libs\libbtstack.a(hci_transport_h3_controller.o)
 .rodata.stack.h3
                0x0000000000000000        0x2 ..\..\platform\libs\libbtstack.a(hci_transport_h3_controller.o)
 .sbss          0x0000000000000000       0x1c ..\..\platform\libs\libbtstack.a(hci_transport_h3_controller.o)
 .comment       0x0000000000000000       0x13 ..\..\platform\libs\libbtstack.a(hci_transport_h3_controller.o)
 .riscv.attributes
                0x0000000000000000       0x32 ..\..\platform\libs\libbtstack.a(hci_transport_h3_controller.o)
 .text          0x0000000000000000        0x0 ..\..\platform\libs\libbtstack.a(l2cap.o)
 .data          0x0000000000000000        0x0 ..\..\platform\libs\libbtstack.a(l2cap.o)
 .bss           0x0000000000000000        0x0 ..\..\platform\libs\libbtstack.a(l2cap.o)
 .text.stack.handler.l2cap
                0x0000000000000000       0x1a ..\..\platform\libs\libbtstack.a(l2cap.o)
 .comment       0x0000000000000000       0x13 ..\..\platform\libs\libbtstack.a(l2cap.o)
 .riscv.attributes
                0x0000000000000000       0x32 ..\..\platform\libs\libbtstack.a(l2cap.o)
 .text          0x0000000000000000        0x0 ..\..\platform\libs\libbtstack.a(l2cap_att.o)
 .data          0x0000000000000000        0x0 ..\..\platform\libs\libbtstack.a(l2cap_att.o)
 .bss           0x0000000000000000        0x0 ..\..\platform\libs\libbtstack.a(l2cap_att.o)
 .text.get_latt_connection_context_for_l2cap_cid
                0x0000000000000000       0x24 ..\..\platform\libs\libbtstack.a(l2cap_att.o)
 .text.latt_packet_handler
                0x0000000000000000      0x1c2 ..\..\platform\libs\libbtstack.a(l2cap_att.o)
 .text.att_channel_create
                0x0000000000000000       0x80 ..\..\platform\libs\libbtstack.a(l2cap_att.o)
 .text.att_establish_service_level_connection
                0x0000000000000000        0x8 ..\..\platform\libs\libbtstack.a(l2cap_att.o)
 .text.latt_notify
                0x0000000000000000       0x98 ..\..\platform\libs\libbtstack.a(l2cap_att.o)
 .text.latt_init
                0x0000000000000000       0x9e ..\..\platform\libs\libbtstack.a(l2cap_att.o)
 .text          0x0000000000000000        0x0 ..\..\platform\libs\libbtstack.a(tws_con.o)
 .data          0x0000000000000000        0x0 ..\..\platform\libs\libbtstack.a(tws_con.o)
 .bss           0x0000000000000000        0x0 ..\..\platform\libs\libbtstack.a(tws_con.o)
 .text.bt_get_tws_fast_pair_inq_status
                0x0000000000000000        0x4 ..\..\platform\libs\libbtstack.a(tws_con.o)
 .text.bt_get_tws_status
                0x0000000000000000        0xa ..\..\platform\libs\libbtstack.a(tws_con.o)
 .text.btstack_tws_link_ctrl_timer_is_active
                0x0000000000000000       0x48 ..\..\platform\libs\libbtstack.a(tws_con.o)
 .text.bt_notice_tws_disconnect_status
                0x0000000000000000        0x2 ..\..\platform\libs\libbtstack.a(tws_con.o)
 .text          0x0000000000000000        0x0 ..\..\platform\libs\libbtstack.a(tws_init.o)
 .data          0x0000000000000000        0x0 ..\..\platform\libs\libbtstack.a(tws_init.o)
 .bss           0x0000000000000000        0x0 ..\..\platform\libs\libbtstack.a(tws_init.o)
 .text          0x0000000000000000        0x0 ..\..\platform\libs\libbtstack.a(btpatch.o)
 .data          0x0000000000000000        0x0 ..\..\platform\libs\libbtstack.a(btpatch.o)
 .bss           0x0000000000000000        0x0 ..\..\platform\libs\libbtstack.a(btpatch.o)
 .text          0x0000000000000000        0x0 ..\..\platform\libs\libbtstack.a(lc_hook.o)
 .data          0x0000000000000000        0x0 ..\..\platform\libs\libbtstack.a(lc_hook.o)
 .bss           0x0000000000000000        0x0 ..\..\platform\libs\libbtstack.a(lc_hook.o)
 .text          0x0000000000000000        0x0 ..\..\platform\libs\libbtstack.a(bb.o)
 .data          0x0000000000000000        0x0 ..\..\platform\libs\libbtstack.a(bb.o)
 .bss           0x0000000000000000        0x0 ..\..\platform\libs\libbtstack.a(bb.o)
 .text.spi_init
                0x0000000000000000       0x54 ..\..\platform\libs\libbtstack.a(bb.o)
 .com_text.bb.btisr
                0x0000000000000000       0x4a ..\..\platform\libs\libbtstack.a(bb.o)
 .text          0x0000000000000000        0x0 ..\..\platform\libs\libbtstack.a(ext_bt.o)
 .data          0x0000000000000000        0x0 ..\..\platform\libs\libbtstack.a(ext_bt.o)
 .bss           0x0000000000000000        0x0 ..\..\platform\libs\libbtstack.a(ext_bt.o)
 .text          0x0000000000000000        0x0 ..\..\platform\libs\libbtstack.a(ext_tws.o)
 .data          0x0000000000000000        0x0 ..\..\platform\libs\libbtstack.a(ext_tws.o)
 .bss           0x0000000000000000        0x0 ..\..\platform\libs\libbtstack.a(ext_tws.o)
 .text          0x0000000000000000        0x0 ..\..\platform\libs\libbtstack.a(lc_proc.o)
 .data          0x0000000000000000        0x0 ..\..\platform\libs\libbtstack.a(lc_proc.o)
 .bss           0x0000000000000000        0x0 ..\..\platform\libs\libbtstack.a(lc_proc.o)
 .text          0x0000000000000000        0x0 ..\..\platform\libs\libbtstack.a(lm_proc.o)
 .data          0x0000000000000000        0x0 ..\..\platform\libs\libbtstack.a(lm_proc.o)
 .bss           0x0000000000000000        0x0 ..\..\platform\libs\libbtstack.a(lm_proc.o)
 .text          0x0000000000000000        0x0 ..\..\platform\libs\libbtstack.a(tws.o)
 .data          0x0000000000000000        0x0 ..\..\platform\libs\libbtstack.a(tws.o)
 .bss           0x0000000000000000        0x0 ..\..\platform\libs\libbtstack.a(tws.o)
 .text          0x0000000000000000        0x0 ..\..\platform\libs\libbtstack.a(tws_lmp.o)
 .data          0x0000000000000000        0x0 ..\..\platform\libs\libbtstack.a(tws_lmp.o)
 .bss           0x0000000000000000        0x0 ..\..\platform\libs\libbtstack.a(tws_lmp.o)
 .text.tws_send_set_siri_status
                0x0000000000000000       0x3a ..\..\platform\libs\libbtstack.a(tws_lmp.o)
 .text.tws_remote_set_reconnect
                0x0000000000000000        0xe ..\..\platform\libs\libbtstack.a(tws_lmp.o)
 .rodata.str1.4
                0x0000000000000000        0x9 ..\..\platform\libs\libbtstack.a(tws_lmp.o)
 .text.tws_remote_reconnect_nor
                0x0000000000000000       0xb8 ..\..\platform\libs\libbtstack.a(tws_lmp.o)
 .text.tws_send_set_reconnect_nor
                0x0000000000000000       0x3a ..\..\platform\libs\libbtstack.a(tws_lmp.o)
 .text          0x0000000000000000        0x0 ..\..\platform\libs\libbtstack.a(hcic.o)
 .data          0x0000000000000000        0x0 ..\..\platform\libs\libbtstack.a(hcic.o)
 .bss           0x0000000000000000        0x0 ..\..\platform\libs\libbtstack.a(hcic.o)
 .text          0x0000000000000000        0x0 ..\..\platform\libs\libbtstack.a(att_db.o)
 .data          0x0000000000000000        0x0 ..\..\platform\libs\libbtstack.a(att_db.o)
 .bss           0x0000000000000000        0x0 ..\..\platform\libs\libbtstack.a(att_db.o)
 .text.att_iterator_fetch_next
                0x0000000000000000       0x64 ..\..\platform\libs\libbtstack.a(att_db.o)
 .text.att_update_value_len
                0x0000000000000000       0x38 ..\..\platform\libs\libbtstack.a(att_db.o)
 .text.att_find_handle
                0x0000000000000000       0x40 ..\..\platform\libs\libbtstack.a(att_db.o)
 .text.att_copy_value
                0x0000000000000000       0x58 ..\..\platform\libs\libbtstack.a(att_db.o)
 .text.is_Bluetooth_Base_UUID
                0x0000000000000000       0x44 ..\..\platform\libs\libbtstack.a(att_db.o)
 .text.att_iterator_match_uuid16
                0x0000000000000000       0x44 ..\..\platform\libs\libbtstack.a(att_db.o)
 .text.att_iterator_match_uuid
                0x0000000000000000       0x66 ..\..\platform\libs\libbtstack.a(att_db.o)
 .text.att_validate_security.isra.0
                0x0000000000000000       0x34 ..\..\platform\libs\libbtstack.a(att_db.o)
 .text.att_uuid_for_handle
                0x0000000000000000       0x38 ..\..\platform\libs\libbtstack.a(att_db.o)
 .text.att_set_db
                0x0000000000000000        0xa ..\..\platform\libs\libbtstack.a(att_db.o)
 .text.att_set_read_callback
                0x0000000000000000        0xa ..\..\platform\libs\libbtstack.a(att_db.o)
 .text.att_set_write_callback
                0x0000000000000000        0xa ..\..\platform\libs\libbtstack.a(att_db.o)
 .text.att_dump_attributes
                0x0000000000000000       0x4e ..\..\platform\libs\libbtstack.a(att_db.o)
 .text.att_clear_transaction_queue
                0x0000000000000000       0x1e ..\..\platform\libs\libbtstack.a(att_db.o)
 .text.att_prepare_handle_value_notification
                0x0000000000000000       0x4a ..\..\platform\libs\libbtstack.a(att_db.o)
 .text.att_prepare_handle_value_indication
                0x0000000000000000       0x4a ..\..\platform\libs\libbtstack.a(att_db.o)
 .text.att_handle_request
                0x0000000000000000      0xaa8 ..\..\platform\libs\libbtstack.a(att_db.o)
 .text.gatt_server_get_get_handle_range_for_service_with_uuid16
                0x0000000000000000       0xa0 ..\..\platform\libs\libbtstack.a(att_db.o)
 .text.gatt_server_get_value_handle_for_characteristic_with_uuid16
                0x0000000000000000       0x54 ..\..\platform\libs\libbtstack.a(att_db.o)
 .text.gatt_server_get_client_configuration_handle_for_characteristic_with_uuid16
                0x0000000000000000       0xaa ..\..\platform\libs\libbtstack.a(att_db.o)
 .rodata        0x0000000000000000       0x10 ..\..\platform\libs\libbtstack.a(att_db.o)
 .sbss          0x0000000000000000       0x10 ..\..\platform\libs\libbtstack.a(att_db.o)
 .comment       0x0000000000000000       0x13 ..\..\platform\libs\libbtstack.a(att_db.o)
 .riscv.attributes
                0x0000000000000000       0x32 ..\..\platform\libs\libbtstack.a(att_db.o)
 .text          0x0000000000000000        0x0 ..\..\platform\libs\libbtstack.a(att_server.o)
 .data          0x0000000000000000        0x0 ..\..\platform\libs\libbtstack.a(att_server.o)
 .bss           0x0000000000000000        0x0 ..\..\platform\libs\libbtstack.a(att_server.o)
 .ble_buf.att   0x0000000000000000        0xa ..\..\platform\libs\libbtstack.a(att_server.o)
 .comment       0x0000000000000000       0x13 ..\..\platform\libs\libbtstack.a(att_server.o)
 .riscv.attributes
                0x0000000000000000       0x32 ..\..\platform\libs\libbtstack.a(att_server.o)
 .text          0x0000000000000000        0x0 ..\..\platform\libs\libbtstack.a(gatt_server.o)
 .data          0x0000000000000000        0x0 ..\..\platform\libs\libbtstack.a(gatt_server.o)
 .bss           0x0000000000000000        0x0 ..\..\platform\libs\libbtstack.a(gatt_server.o)
 .text.att_attribute_for_handle
                0x0000000000000000       0x28 ..\..\platform\libs\libbtstack.a(gatt_server.o)
 .text.att_read_callback
                0x0000000000000000      0x178 ..\..\platform\libs\libbtstack.a(gatt_server.o)
 .text.att_write_callback
                0x0000000000000000      0x274 ..\..\platform\libs\libbtstack.a(gatt_server.o)
 .text.ble_init_att_do
                0x0000000000000000       0x3e ..\..\platform\libs\libbtstack.a(gatt_server.o)
 .text.btstack_ble_send
                0x0000000000000000        0x2 ..\..\platform\libs\libbtstack.a(gatt_server.o)
 .text.btstack_ble_update_conn_param
                0x0000000000000000        0x2 ..\..\platform\libs\libbtstack.a(gatt_server.o)
 .text.btstack_ble_set_adv_interval
                0x0000000000000000        0x2 ..\..\platform\libs\libbtstack.a(gatt_server.o)
 .text.btstack_ble_set_adv_data
                0x0000000000000000        0x2 ..\..\platform\libs\libbtstack.a(gatt_server.o)
 .text.btstack_ble_disconnect
                0x0000000000000000        0x2 ..\..\platform\libs\libbtstack.a(gatt_server.o)
 .text.ble_set_adv_interval
                0x0000000000000000        0x8 ..\..\platform\libs\libbtstack.a(gatt_server.o)
 .text.ble_set_adv
                0x0000000000000000        0x8 ..\..\platform\libs\libbtstack.a(gatt_server.o)
 .text.ble_set_adv_data
                0x0000000000000000        0x8 ..\..\platform\libs\libbtstack.a(gatt_server.o)
 .text.ble_set_scan_rsp_data
                0x0000000000000000        0x8 ..\..\platform\libs\libbtstack.a(gatt_server.o)
 .rodata        0x0000000000000000       0x11 ..\..\platform\libs\libbtstack.a(gatt_server.o)
 .ble_buf.att   0x0000000000000000      0x188 ..\..\platform\libs\libbtstack.a(gatt_server.o)
 .comment       0x0000000000000000       0x13 ..\..\platform\libs\libbtstack.a(gatt_server.o)
 .riscv.attributes
                0x0000000000000000       0x32 ..\..\platform\libs\libbtstack.a(gatt_server.o)
 .text          0x0000000000000000        0x0 ..\..\platform\libs\libbtstack.a(att_siri_server.o)
 .data          0x0000000000000000        0x0 ..\..\platform\libs\libbtstack.a(att_siri_server.o)
 .bss           0x0000000000000000        0x0 ..\..\platform\libs\libbtstack.a(att_siri_server.o)
 .text.siri_packet_handler_timeout
                0x0000000000000000       0x88 ..\..\platform\libs\libbtstack.a(att_siri_server.o)
 .text.siri_notify.constprop.0
                0x0000000000000000       0x82 ..\..\platform\libs\libbtstack.a(att_siri_server.o)
 .text.bt_va_get_sta
                0x0000000000000000        0xa ..\..\platform\libs\libbtstack.a(att_siri_server.o)
 .text.bt_va_is_connect
                0x0000000000000000       0x40 ..\..\platform\libs\libbtstack.a(att_siri_server.o)
 .text.va_write_callback
                0x0000000000000000      0x12e ..\..\platform\libs\libbtstack.a(att_siri_server.o)
 .text.va_read_callback
                0x0000000000000000        0x4 ..\..\platform\libs\libbtstack.a(att_siri_server.o)
 .text.latt_va_profile_init
                0x0000000000000000       0x52 ..\..\platform\libs\libbtstack.a(att_siri_server.o)
 .text.bt_va_start
                0x0000000000000000       0x42 ..\..\platform\libs\libbtstack.a(att_siri_server.o)
 .text.btstack_att_send
                0x0000000000000000       0x70 ..\..\platform\libs\libbtstack.a(att_siri_server.o)
 .text.opus.server
                0x0000000000000000       0x94 ..\..\platform\libs\libbtstack.a(att_siri_server.o)
 .text.va_packet_init
                0x0000000000000000       0x5a ..\..\platform\libs\libbtstack.a(att_siri_server.o)
 .text.va_init  0x0000000000000000       0x32 ..\..\platform\libs\libbtstack.a(att_siri_server.o)
 .rodata        0x0000000000000000      0x1c9 ..\..\platform\libs\libbtstack.a(att_siri_server.o)
 .att_siri.buf  0x0000000000000000       0xc0 ..\..\platform\libs\libbtstack.a(att_siri_server.o)
 .sbss          0x0000000000000000        0x8 ..\..\platform\libs\libbtstack.a(att_siri_server.o)
 .srodata       0x0000000000000000       0x3c ..\..\platform\libs\libbtstack.a(att_siri_server.o)
 .text          0x0000000000000000        0x0 ..\..\platform\libs\libbtstack.a(nanos.o)
 .data          0x0000000000000000        0x0 ..\..\platform\libs\libbtstack.a(nanos.o)
 .bss           0x0000000000000000        0x0 ..\..\platform\libs\libbtstack.a(nanos.o)
 .text          0x0000000000000000        0x0 ..\..\platform\libs\libcodecs.a(ains3.o)
 .data          0x0000000000000000        0x0 ..\..\platform\libs\libcodecs.a(ains3.o)
 .bss           0x0000000000000000        0x0 ..\..\platform\libs\libcodecs.a(ains3.o)

Memory Configuration

Name             Origin             Length             Attributes
init             0x0000000010000000 0x0000000000000200
flash            0x0000000010000200 0x0000000000040000 xr
comm             0x0000000000064000 0x0000000000001200 xr
bcomm            0x0000000000018c00 0x0000000000001400 xr
acomm            0x0000000000050000 0x0000000000006e00 xr
sleep_comm       0x0000000000052000 0x0000000000001000 xr
pwrdwn_comm      0x0000000000052000 0x0000000000001000 xr
dbb_comm         0x0000000000041400 0x0000000000000400 xr
raminit          0x0000000000017000 0x0000000000000200 xr
data             0x0000000000018500 0x0000000000000700
stack            0x0000000000063c00 0x0000000000000400
aram             0x0000000000050000 0x0000000000006e00
cram             0x0000000000018000 0x0000000000000500
dram             0x0000000000058000 0x0000000000004500
nram             0x0000000000040000 0x0000000000001800
*default*        0x0000000000000000 0xffffffffffffffff

Linker script and memory map

LOAD Output\obj\platform\bsp\bsp_188led_driver.o
LOAD Output\obj\platform\bsp\bsp_anc.o
LOAD Output\obj\platform\bsp\bsp_audio.o
LOAD Output\obj\platform\bsp\bsp_ble.o
LOAD Output\obj\platform\bsp\bsp_bt.o
LOAD Output\obj\platform\bsp\bsp_charge.o
LOAD Output\obj\platform\bsp\bsp_cm.o
LOAD Output\obj\platform\bsp\bsp_dac.o
LOAD Output\obj\platform\bsp\bsp_eq.o
LOAD Output\obj\platform\bsp\bsp_iodm.o
LOAD Output\obj\platform\bsp\bsp_key.o
LOAD Output\obj\platform\bsp\bsp_led.o
LOAD Output\obj\platform\bsp\bsp_map.o
LOAD Output\obj\platform\bsp\bsp_mav.o
LOAD Output\obj\platform\bsp\bsp_music.o
LOAD Output\obj\platform\bsp\bsp_param.o
LOAD Output\obj\platform\bsp\bsp_smart_vhouse.o
LOAD Output\obj\platform\bsp\bsp_spp.o
LOAD Output\obj\platform\bsp\bsp_sys.o
LOAD Output\obj\platform\bsp\bsp_tbox_qtest.o
LOAD Output\obj\platform\bsp\bsp_tkey.o
LOAD Output\obj\platform\bsp\bsp_vusb_uart.o
LOAD Output\obj\platform\bsp\bsp_warning_play.o
LOAD Output\obj\platform\functions\func.o
LOAD Output\obj\platform\functions\func_aux.o
LOAD Output\obj\platform\functions\func_bt.o
LOAD Output\obj\platform\functions\func_bt_hid.o
LOAD Output\obj\platform\functions\func_lowpwr.o
LOAD Output\obj\platform\functions\func_speaker.o
LOAD Output\obj\platform\functions\sfunc_bt_call.o
LOAD Output\obj\platform\functions\sfunc_bt_ring.o
LOAD Output\obj\platform\libs\strong_symbol.o
LOAD Output\obj\projects\earphone\config.o
LOAD Output\obj\projects\earphone\main.o
LOAD Output\obj\projects\earphone\message\msg_aux.o
LOAD Output\obj\projects\earphone\message\msg_bt.o
LOAD Output\obj\projects\earphone\message\msg_speak.o
LOAD Output\obj\projects\earphone\plugin\multi_lang.o
LOAD Output\obj\projects\earphone\plugin\plugin.o
LOAD Output\obj\projects\earphone\plugin\timer.o
LOAD Output\obj\projects\earphone\port\port_atmosphere_led.o
LOAD Output\obj\projects\earphone\port\port_breathe_led.o
LOAD Output\obj\projects\earphone\port\port_ear_in.o
LOAD Output\obj\projects\earphone\port\port_hall_sensor.o
LOAD Output\obj\projects\earphone\port\port_key.o
LOAD Output\obj\projects\earphone\port\port_led.o
LOAD Output\obj\projects\earphone\port\port_linein.o
LOAD Output\obj\projects\earphone\port\port_tkey.o
                0x0000000000040000                __max_flash_size = 0x40000
                0x0000000010000000                __base = 0x10000000
                0x0000000000064000                __comm_vma = 0x64000
                0x0000000000001200                __max_comm_size = 0x1200
                0x0000000000018c00                __bcomm_vma = 0x18c00
                0x0000000000001400                __max_bcomm_size = 0x1400
                0x0000000000017000                __raminit_vma = 0x17000
                0x0000000000050000                __aram_vma = 0x50000
                0x0000000000018000                __cram_vma = 0x18000
                0x0000000000058000                __dram_vma = 0x58000
                0x0000000000040000                __nram_vma = 0x40000
                0x0000000000050000                __acomm_vma = 0x50000
                0x0000000000006e00                __max_acomm_size = 0x6e00
                0x0000000000052000                __sleep_comm_vma = 0x52000
                0x0000000000001000                __max_sleep_comm_size = 0x1000
                0x0000000000052000                __pwrdwn_comm_vma = 0x52000
                0x0000000000001000                __max_pwrdwn_comm_size = 0x1000
                0x0000000000041400                __dbb_comm_vma = 0x41400
                0x0000000000000400                __max_dbb_comm_size = 0x400

.init           0x0000000010000000      0x200
 *(.reset)
 .reset         0x0000000010000000       0x36 ..\..\platform\libs\libplatform.a(reset.o)
                0x0000000010000000                _start
 *(.init_text)
 .init_text     0x0000000010000036      0x1b6 ..\..\platform\libs\libplatform.a(main.o)
                0x0000000010000036                platform_main_enter
                0x00000000100001de                platform_main
                0x0000000010000200                . = ALIGN (0x200)
 *fill*         0x00000000100001ec       0x14 

.bcomm          0x0000000000018c00      0xa00 load address 0x0000000010000200
 *(.bt_voice*)
 *(.text.sleep.rf)
 .text.sleep.rf
                0x0000000000018c00      0x100 ..\..\platform\libs\libbtstack.a(rf_viva.o)
                0x0000000000018c00                bias_en_deep_sleep
                0x0000000000018c10                bias_en_idle
                0x0000000000018c24                sx_en_deep_sleep
                0x0000000000018c4a                sx_en_idle
                0x0000000000018c70                rx_en_idle
                0x0000000000018cb6                rx_en_deep_sleep
                0x0000000000018cb8                tx_en_idle
                0x0000000000018cdc                tx_en_deep_sleep
                0x0000000000018cde                deep_sleep_state
                0x0000000000018cee                idle_state
                0x0000000000018cfe                rfphy_deep_sleep_exit
 *(.com_text.led_disp)
 .com_text.led_disp
                0x0000000000018d00       0x62 Output\obj\platform\bsp\bsp_led.o
                0x0000000000018d00                charge_led_on
 .com_text.led_disp
                0x0000000000018d62        0x8 Output\obj\projects\earphone\port\port_breathe_led.o
                0x0000000000018d62                breathe_led_start_hook
                0x0000000000018d66                breathe_led_stop
 *(.com_text.ret.bt21.isr*)
 *(.com_text.rf*)
 .com_text.rf   0x0000000000018d6a       0xee ..\..\platform\libs\libbtstack.a(rf_viva.o)
                0x0000000000018d6a                rf_agc_gain_do
                0x0000000000018d84                rf_agc_gain_blocking
                0x0000000000018de6                rf_agc_gain
 *(.com_text.mav)
 *(.com_text.mute)
 *(.com_text.mictrim)
 .com_text.mictrim
                0x0000000000018e58       0xc6 ..\..\platform\libs\libplatform.a(mic_trim.o)
                0x0000000000018e58                mic_bias_trim_for_saradc
                0x0000000000018eba                mic_bias_trim
 *(.com_text.sbccode)
 *(.com_text.aec*)
 .com_text.aec.proc
                0x0000000000018f1e      0x15a ..\..\platform\libs\libplatform.a(bt_aec.o)
                0x0000000000018f3e                bt_aec_nr_process
                0x0000000000018fc0                aec_process_hook
 .com_text.aec.nlp
                0x0000000000019078        0x6 ..\..\platform\libs\libplatform.a(bt_aec.o)
                0x0000000000019078                aec_nlp_gain_process
 .com_text.aec.asm
                0x000000000001907e       0x48 ..\..\platform\libs\libplatform.a(s_bt_aec.o)
                0x000000000001907e                aec_dig_gain_process_s
 *(.com_text.tkey*)
 .com_text.tkey.isr
                0x00000000000190c6        0x4 Output\obj\platform\bsp\bsp_tkey.o
                0x00000000000190c6                tkey_tkcnt_isr_hook
 .com_text.tkey
                0x00000000000190ca        0x4 Output\obj\platform\bsp\bsp_tkey.o
                0x00000000000190ca                tkey_is_pressed
 *(.com_text.bsp.tkey*)
 .com_text.bsp.tkey
                0x00000000000190ce        0x4 Output\obj\platform\bsp\bsp_tkey.o
                0x00000000000190ce                bsp_tkey_scan
 *(.com_text.bsp.key*)
 .com_text.bsp.key
                0x00000000000190d2       0xb4 Output\obj\platform\bsp\bsp_key.o
                0x00000000000190d2                key_scan
                0x0000000000019106                bsp_key_scan
 *(.com_text.bb.*)
 .com_text.bb.tws.sco
                0x0000000000019186       0x7a ..\..\platform\libs\libbtstack.a(ext_tsco.o)
                0x0000000000019186                ext_tsco_buf_insert
 .com_text.bb.bttx
                0x0000000000019200       0x9a ..\..\platform\libs\libbtstack.a(tws_switch.o)
                0x0000000000019200                tws_switch_save_pend_fix
 *(.com_text.bt.*)
 .com_text.bt.patch
                0x000000000001929a       0x86 ..\..\platform\libs\libbtstack.a(btpatch.o)
                0x000000000001929a                ext_lc_rx_sync_patch1
                0x00000000000192c6                ext_lc_rx_sync_patch0
                0x00000000000192e0                ext_lc_sniff_compute_sync_window_patch
                0x0000000000019304                a2dp_cache_before_rx_full
                0x000000000001931c                lc_sco_codec_pkt_patch
 .com_text.bt.lmp_msg
                0x0000000000019320       0xd4 ..\..\platform\libs\libbtstack.a(lc_proc.o)
                0x0000000000019320                lc_lmp_msg_handler_fix
 *(.com_text.btmem.pbap)
 .com_text.btmem.pbap
                0x00000000000193f4       0x98 ..\..\platform\libs\libbtstack.a(goep_client.o)
 *(.com_text.ble)
                0x0000000000019600                . = ALIGN (0x200)
 *fill*         0x000000000001948c      0x174 

.comm           0x0000000000064000     0x1000 load address 0x0000000010000c00
 *(.vector)
 .vector        0x0000000000064000       0xa0 ..\..\platform\libs\libplatform.a(reset.o)
 *(.plt)
 .plt           0x00000000000640a0       0x14 ..\..\platform\libs\libplatform.a(main.o)
 *(.com_text*)
 .com_text.bat  0x00000000000640b4        0x2 Output\obj\platform\bsp\bsp_bt.o
                0x00000000000640b4                hfp_get_bat_level_hook
 .com_text.charge
                0x00000000000640b6       0x86 Output\obj\platform\bsp\bsp_charge.o
                0x00000000000640b6                bsp_charge_sta_hook
 .com_text.eq   0x000000000006413c       0x46 Output\obj\platform\bsp\bsp_eq.o
                0x000000000006413c                huart_eq_rx_done
 .com_text.port.vbat
                0x0000000000064182       0x6c Output\obj\platform\bsp\bsp_key.o
                0x0000000000064182                get_vbat_val2
                0x00000000000641ec                get_vbat_val
 .com_text.port.key
                0x00000000000641ee       0x1c Output\obj\platform\bsp\bsp_key.o
                0x00000000000641ee                get_adc_val_hook
 .com_text.vhouse
                0x000000000006420a      0x13e Output\obj\platform\bsp\bsp_smart_vhouse.o
                0x000000000006420a                bsp_smart_vhouse_process
 .com_text.timer
                0x0000000000064348       0x3e Output\obj\platform\bsp\bsp_sys.o
                0x0000000000064348                usr_tmr1ms_isr
                0x000000000006434a                usr_tmr5ms_isr_hook
 .com_text.sco  0x0000000000064386        0x4 Output\obj\platform\libs\strong_symbol.o
                0x0000000000064386                adc_sco_magic_process_hook
 .com_text.strong
                0x000000000006438a        0xa Output\obj\platform\libs\strong_symbol.o
                0x000000000006438a                sbc_hwdec_kick_hook
                0x000000000006438e                aac_audec_kick_hook
                0x0000000000064392                sbc_pcm_out_start
 .com_text.eq   0x0000000000064394        0x8 Output\obj\platform\libs\strong_symbol.o
                0x0000000000064394                eq_dec_en
                0x0000000000064398                eq_dec_param
 .com_text.timer
                0x000000000006439c        0x4 Output\obj\platform\libs\strong_symbol.o
                0x000000000006439c                bsp_vhouse_cmd_ack
 .com_text.key  0x00000000000643a0        0x4 Output\obj\projects\earphone\port\port_key.o
                0x00000000000643a0                check_double_key_hook
 .com_text.timer
                0x00000000000643a4        0x4 ..\..\platform\libs\libplatform.a(main.o)
                0x00000000000643a4                timer3_isr
 .com_text.music
                0x00000000000643a8        0x4 ..\..\platform\libs\libplatform.a(codecs_pcm.o)
                0x00000000000643a8                bt_alg_dbb_is_enable
 .com_text.risr
                0x00000000000643ac       0x64 ..\..\platform\libs\libplatform.a(reset.o)
                0x00000000000643ac                _bthw_txrx_isr
                0x00000000000643b4                _timer3_isr
 .com_text.spiflash
                0x0000000000064410       0x70 ..\..\platform\libs\libplatform.a(os_flash.o)
                0x0000000000064410                os_spiflash_program
                0x000000000006444c                os_spiflash_erase
 .com_text.charge
                0x0000000000064480      0x264 ..\..\platform\libs\libplatform.a(charge.o)
                0x0000000000064480                charge_ntc_get_sta
                0x0000000000064484                charge_ntc_check
                0x00000000000644ac                charge_start
 .com_text.debug
                0x00000000000646e4      0x11e ..\..\platform\libs\libplatform.a(debug.o)
 .com_text.patch
                0x0000000000064802       0x90 ..\..\platform\libs\libplatform.a(patch.o)
                0x0000000000064802                patch_set_entry
                0x000000000006483c                patch_set_ret
                0x0000000000064850                patch_set
 .com_text.qtest
                0x0000000000064892      0x158 ..\..\platform\libs\libplatform.a(qtest.o)
                0x0000000000064892                qtest_is_new_mode
                0x0000000000064896                qtest_get_charge_pwrsave_sta
                0x000000000006489a                qtest_rx_is_valid
                0x0000000000064974                qtest_only_pair
                0x00000000000649bc                func_qtest_process
 *fill*         0x00000000000649ea        0x2 
 .com_text.ihook
                0x00000000000649ec       0xae ..\..\platform\libs\libplatform.a(sys_hook.o)
                0x00000000000649ec                sys_ihook_func
 *fill*         0x0000000000064a9a        0x2 
 .com_text.chook
                0x0000000000064a9c       0xbc ..\..\platform\libs\libplatform.a(sys_hook.o)
                0x0000000000064a9c                sys_chook_func
 .com_text.timer
                0x0000000000064b58       0x1a ..\..\platform\libs\libplatform.a(startup.o)
                0x0000000000064b58                thread_timer_entry
 .com_text.music
                0x0000000000064b72      0x144 ..\..\platform\libs\libplatform.a(music.o)
                0x0000000000064b98                thread_music_entry
 .com_text.isr.txrx
                0x0000000000064cb6       0x1c ..\..\platform\libs\libbtstack.a(rf.o)
                0x0000000000064cb6                bthw_txrx_isr
 .com_text.isr.txrx
                0x0000000000064cd2        0x2 ..\..\platform\libs\libbtstack.a(weak_symbol.o)
                0x0000000000064cd2                bb_rf_ext_ctl_cb
 .com_text.link.dump
                0x0000000000064cd4        0x2 ..\..\platform\libs\libbtstack.a(btstack.o)
                0x0000000000064cd4                btstack_link_key_log
 .com_text.stack.run_loop
                0x0000000000064cd6        0x2 ..\..\platform\libs\libbtstack.a(btstack_run_loop.o)
                0x0000000000064cd6                btstack_run_loop_once
 .com_text.bb   0x0000000000064cd8        0x4 ..\..\platform\libs\libbtstack.a(a2dp_play.o)
                0x0000000000064cd8                a2dp_is_rx_stop
 .com_text.stack.handler
                0x0000000000064cdc       0x38 ..\..\platform\libs\libbtstack.a(hci.o)
                0x0000000000064cdc                hci_packet_handler
 .com_text.stack.hci_dump
                0x0000000000064d14        0x2 ..\..\platform\libs\libbtstack.a(hci_dump.o)
                0x0000000000064d14                hci_dump_packet
 .com_text.tws.con
                0x0000000000064d16       0x5c ..\..\platform\libs\libbtstack.a(tws_con.o)
                0x0000000000064d16                tws_acl_handler
 .com_text.ains3.proc
                0x0000000000064d72        0xe ..\..\platform\libs\libcodecs.a(ains3.o)
                0x0000000000064d72                ains3_nr_process
 *(.com_rodata*)
 .com_rodata.key.table
                0x0000000000064d80        0x8 Output\obj\platform\bsp\bsp_key.o
                0x0000000000064d80                key_filter_tbl
 .com_rodata.multi.key
                0x0000000000064d88        0x8 Output\obj\platform\bsp\bsp_key.o
                0x0000000000064d88                key_multi_tbl
 .com_rodata.debug
                0x0000000000064d90       0x26 ..\..\platform\libs\libplatform.a(debug.o)
 *fill*         0x0000000000064db6        0x2 
 .com_rodata.qtest.tbl
                0x0000000000064db8        0x3 ..\..\platform\libs\libplatform.a(qtest.o)
                0x0000000000064db8                qtest_sign_str
 *fill*         0x0000000000064dbb        0x1 
 .com_rodata.agc
                0x0000000000064dbc       0x38 ..\..\platform\libs\libbtstack.a(rf_viva.o)
                0x0000000000064dbc                rf_agc_normal_tbl
                0x0000000000064dd8                rf_agc_blocking_tbl
 .com_rodata.bb.tbl
                0x0000000000064df4       0x64 ..\..\platform\libs\libbtstack.a(lc_proc.o)
                0x0000000000064e08                lc_first_handler
 .com_rodata.bb.tbl
                0x0000000000064e58       0x1c ..\..\platform\libs\libbtstack.a(lm_proc.o)
                0x0000000000064e6c                lm_fast_handler
 *(.srodata*)
 .srodata       0x0000000000064e74        0x8 Output\obj\platform\functions\func_bt.o
 .srodata       0x0000000000064e7c        0x6 ..\..\platform\libs\libbtstack.a(btstack_main.o)
 *fill*         0x0000000000064e82        0x2 
 .srodata       0x0000000000064e84        0x2 ..\..\platform\libs\libbtstack.a(map_client.o)
 *debug.o(.rodata*)
 *fill*         0x0000000000064e86        0x2 
 .rodata.str1.4
                0x0000000000064e88       0x5c ..\..\platform\libs\libplatform.a(debug.o)
 *(.data*)
 *(.sdata*)
 .sdata.cfg_vio_chg_en
                0x0000000000064ee4        0x1 ..\..\platform\libs\libplatform.a(charge.o)
                0x0000000000064ee4                cfg_vio_chg_en
 *fill*         0x0000000000064ee5        0x3 
 .sdata         0x0000000000064ee8        0x8 ..\..\platform\libs\libbtstack.a(map_client.o)
                0x0000000000065000                . = ALIGN (0x200)
 *fill*         0x0000000000064ef0      0x110 

.raminit        0x0000000000017000      0x200 load address 0x0000000010001c00
 *(.ramint.text*)
 .ramint.text   0x0000000000017000       0xb2 ..\..\platform\libs\libplatform.a(main.o)
                0x0000000000017000                sys_sram_config
                0x0000000000017200                . = ALIGN (0x200)
 *fill*         0x00000000000170b2      0x14e 

.acomm          0x0000000000050000        0x0 load address 0x0000000010001e00
 *(.text.opus.asm)
 *(.text.opus.proc)
 *(.text.opus.ec_tell)
 *(.text.opus.entenc)
 *(.text.opus.mathops)
 *(.text.opus.metric)
 *(.text.opus.compute_mdcts)
 *(.text.opus.mdct)
 *(.text.opus.bands)
 *(.text.opus.kissfft)
 *(.text.opus.comb)
 *(.text.opus.vq)
 *(.rodata.opus*)
                0x0000000000050000                . = ALIGN (0x200)

.sleep_comm     0x0000000000052000      0x400 load address 0x0000000010001e00
 *(.text.sleep_com*)
 .text.sleep_com.timer
                0x0000000000052000      0x10c Output\obj\platform\functions\func_lowpwr.o
                0x0000000000052000                sleep_timer
 .text.sleep_com.process
                0x000000000005210c      0x142 Output\obj\platform\functions\func_lowpwr.o
                0x000000000005210c                sfunc_sleep_process
 *(.sleep_text*)
 .sleep_text.cb
                0x000000000005224e      0x10c ..\..\platform\libs\libplatform.a(sys.o)
                0x000000000005224e                sys_sleep_cb
                0x0000000000052400                . = ALIGN (0x200)
 *fill*         0x000000000005235a       0xa6 

.pwrdwn_comm    0x0000000000052000      0x400 load address 0x0000000010002200
 *(.text.pwrdwn*)
 .text.pwrdwn.lowbat
                0x0000000000052000       0x26 Output\obj\platform\functions\func_lowpwr.o
                0x0000000000052000                sfunc_lowbat_do
 .text.pwrdwn   0x0000000000052026      0x318 Output\obj\platform\functions\func_lowpwr.o
                0x0000000000052026                sfunc_pwrdown_do
                0x0000000000052400                . = ALIGN (0x200)
 *fill*         0x000000000005233e       0xc2 

.dbb_comm       0x0000000000041400        0x0 load address 0x0000000010002600
 *(.text.dbb*)
                0x0000000000041400                . = ALIGN (0x200)

.flash          0x0000000010002600    0x11600
 *(.text.bb.tws.sw_nanos)
                0x0000000010002600                . = ALIGN (0x200)
 *(.text.bfunc.bt)
 .text.bfunc.bt
                0x0000000010002600      0x256 Output\obj\platform\functions\func_bt.o
                0x0000000010002634                func_bt_status
                0x000000001000270a                func_bt_sub_process
                0x0000000010002778                func_bt
 .text.bfunc.bt
                0x0000000010002856       0x6c Output\obj\projects\earphone\message\msg_bt.o
                0x0000000010002856                func_bt_message
                0x000000001000287a                sfunc_bt_ring_message
                0x000000001000289e                sfunc_bt_call_message
 *(.text.bfunc.sleep)
 .text.bfunc.sleep
                0x00000000100028c2       0x4a Output\obj\platform\functions\func_lowpwr.o
                0x00000000100028c2                sleep_process
 *(.text.bfunc.process)
 *(.text.bfunc.warning)
 .text.bfunc.warning
                0x000000001000290c       0x72 Output\obj\platform\functions\func_bt.o
                0x000000001000290c                func_bt_warning_hid_menu
 *(.text.bfunc.vhouse)
 *(.text.bfunc*)
 *fill*         0x000000001000297e        0x2 
 .text.bfunc.msg
                0x0000000010002980      0x2e2 Output\obj\platform\functions\func.o
                0x0000000010002980                func_message
 *(.text.opus*)
 *(.text.ains3*)
 .text.ains3_init
                0x0000000010002c62       0xf8 ..\..\platform\libs\libcodecs.a(ains3.o)
                0x0000000010002c62                ains3_init
 *(.rodata.ains3*)
 *(.text.dongle)
 *(.text.ble*)
 .text.ble      0x0000000010002d5a        0x4 Output\obj\platform\bsp\bsp_ble.o
                0x0000000010002d5a                ble_get_adv_data_hook
 .text.ble_house_adv_init
                0x0000000010002d5e        0x8 ..\..\platform\libs\libplatform.a(bt.o)
                0x0000000010002d5e                ble_house_adv_init
 *(.text*)
 .text.audio_path_init
                0x0000000010002d66       0xf6 Output\obj\platform\bsp\bsp_audio.o
                0x0000000010002d66                audio_path_init
 .text.audio_path_start
                0x0000000010002e5c       0x18 Output\obj\platform\bsp\bsp_audio.o
                0x0000000010002e5c                audio_path_start
 .text.audio_path_exit
                0x0000000010002e74       0x38 Output\obj\platform\bsp\bsp_audio.o
                0x0000000010002e74                audio_path_exit
 .text.bt_get_connect_addr
                0x0000000010002eac       0x2a Output\obj\platform\bsp\bsp_bt.o
                0x0000000010002eac                bt_get_connect_addr
 .text.bt_hid_get_compatibility
                0x0000000010002ed6        0xc Output\obj\platform\bsp\bsp_bt.o
                0x0000000010002ed6                bt_hid_get_compatibility
 .text.hfp_get_outgoing_number
                0x0000000010002ee2        0xa Output\obj\platform\bsp\bsp_bt.o
                0x0000000010002ee2                hfp_get_outgoing_number
 .text.bsp_bt_init_hook
                0x0000000010002eec      0x23c Output\obj\platform\bsp\bsp_bt.o
                0x0000000010002eec                bsp_bt_init_hook
 .text.bt_work_mode_init
                0x0000000010003128       0x16 Output\obj\platform\bsp\bsp_bt.o
                0x0000000010003128                bt_work_mode_init
 .text.bt_get_tws_info
                0x000000001000313e       0x4c Output\obj\platform\bsp\bsp_bt.o
                0x000000001000313e                bt_get_tws_info
 .text.bt_set_tws_info
                0x000000001000318a       0x80 Output\obj\platform\bsp\bsp_bt.o
                0x000000001000318a                bt_set_tws_info
 .text.bt_emit_notice_init_finish
                0x000000001000320a       0xc2 Output\obj\platform\bsp\bsp_bt.o
                0x000000001000320a                bt_emit_notice_init_finish
 .text.bt_emit_notice_disconnect
                0x00000000100032cc       0x86 Output\obj\platform\bsp\bsp_bt.o
                0x00000000100032cc                bt_emit_notice_disconnect
 .text.bt_emit_notice_connected
                0x0000000010003352       0x48 Output\obj\platform\bsp\bsp_bt.o
                0x0000000010003352                bt_emit_notice_connected
 .text.bt_emit_notice_tws_connected
                0x000000001000339a       0xbe Output\obj\platform\bsp\bsp_bt.o
                0x000000001000339a                bt_emit_notice_tws_connected
 *fill*         0x0000000010003458        0x0 
 .text.bt_emit_notice
                0x0000000010003458      0x25c Output\obj\platform\bsp\bsp_bt.o
                0x0000000010003458                bt_emit_notice
 .text.bt_notice_tws_disconnect_status
                0x00000000100036b4        0x2 Output\obj\platform\bsp\bsp_bt.o
                0x00000000100036b4                bt_notice_tws_disconnect_status
 .text.bt_get_local_name
                0x00000000100036b6        0x8 Output\obj\platform\bsp\bsp_bt.o
                0x00000000100036b6                bt_get_local_name
 .text.bt_get_local_bd_addr
                0x00000000100036be       0x2e Output\obj\platform\bsp\bsp_bt.o
                0x00000000100036be                bt_get_local_bd_addr
 .text.bt_get_channel_mac_addr
                0x00000000100036ec        0x2 Output\obj\platform\bsp\bsp_bt.o
                0x00000000100036ec                bt_get_channel_mac_addr
 .text.bt_get_link_info
                0x00000000100036ee        0xe Output\obj\platform\bsp\bsp_bt.o
                0x00000000100036ee                bt_get_link_info
 .text.bt_put_link_info
                0x00000000100036fc       0x2a Output\obj\platform\bsp\bsp_bt.o
                0x00000000100036fc                bt_put_link_info
 .text.bsp_bt_tws_switch_for_charge
                0x0000000010003726      0x122 Output\obj\platform\bsp\bsp_bt.o
                0x0000000010003726                bsp_bt_tws_switch_for_charge
 .text.bt_va_callback
                0x0000000010003848        0x2 Output\obj\platform\bsp\bsp_bt.o
                0x0000000010003848                bt_va_callback
 .text.bt_sco_magic_voice_en
                0x000000001000384a        0x4 Output\obj\platform\bsp\bsp_bt.o
                0x000000001000384a                bt_sco_magic_voice_en
 .text.tws_call_switch_is_ready
                0x000000001000384e       0x14 Output\obj\platform\bsp\bsp_bt.o
                0x000000001000384e                tws_call_switch_is_ready
 .text.bt_play_pause_siri_ctrl_dis
                0x0000000010003862        0x4 Output\obj\platform\bsp\bsp_bt.o
                0x0000000010003862                bt_play_pause_siri_ctrl_dis
 .text.bt_tws_get_search_slave_times
                0x0000000010003866        0x4 Output\obj\platform\bsp\bsp_bt.o
                0x0000000010003866                bt_tws_get_search_slave_times
 .text.bt_get_tws_fast_pair_inq_status
                0x000000001000386a        0x4 Output\obj\platform\bsp\bsp_bt.o
                0x000000001000386a                bt_get_tws_fast_pair_inq_status
 .text.bt_hid_shutter_oppo_is_enable
                0x000000001000386e        0x4 Output\obj\platform\bsp\bsp_bt.o
                0x000000001000386e                bt_hid_shutter_oppo_is_enable
 .text.bsp_bt_hid_photo
                0x0000000010003872       0x64 Output\obj\platform\bsp\bsp_bt.o
                0x0000000010003872                bsp_bt_hid_photo
 .text.bsp_charge_init
                0x00000000100038d6      0x16c Output\obj\platform\bsp\bsp_charge.o
                0x00000000100038d6                bsp_charge_init
 .text.bsp_charge_box_process
                0x0000000010003a42      0x248 Output\obj\platform\bsp\bsp_charge.o
                0x0000000010003a42                bsp_charge_box_process
 .text.bsp_charge_box_enter
                0x0000000010003c8a       0x8c Output\obj\platform\bsp\bsp_charge.o
                0x0000000010003c8a                bsp_charge_box_enter
 .text.bsp_charge_box_reinit
                0x0000000010003d16       0x38 Output\obj\platform\bsp\bsp_charge.o
                0x0000000010003d16                bsp_charge_box_reinit
 .text.bsp_charge_box_exit
                0x0000000010003d4e       0x1a Output\obj\platform\bsp\bsp_charge.o
                0x0000000010003d4e                bsp_charge_box_exit
 .text.cm_loadparam
                0x0000000010003d68        0x4 Output\obj\platform\bsp\bsp_cm.o
                0x0000000010003d68                cm_loadparam
 .text.cm_factory
                0x0000000010003d6c       0x8e Output\obj\platform\bsp\bsp_cm.o
                0x0000000010003d6c                cm_factory
 .text.cm_param_init
                0x0000000010003dfa       0x4a Output\obj\platform\bsp\bsp_cm.o
                0x0000000010003dfa                cm_param_init
 .text.bsp.dac  0x0000000010003e44      0x116 Output\obj\platform\bsp\bsp_dac.o
                0x0000000010003e44                bsp_change_volume_hook
                0x0000000010003e98                dac_init
 .text.dac      0x0000000010003f5a       0x30 Output\obj\platform\bsp\bsp_dac.o
                0x0000000010003f5a                dac_set_anl_offset
 .text.eq       0x0000000010003f8a       0xc6 Output\obj\platform\bsp\bsp_eq.o
                0x0000000010003f8a                music_set_eq_by_num
                0x0000000010003fae                sys_set_eq
                0x0000000010003fda                bt_sco_eq_drc_init
 .text.bt_sco_eq_drc_exit
                0x0000000010004050       0x2a Output\obj\platform\bsp\bsp_eq.o
                0x0000000010004050                bt_sco_eq_drc_exit
 .text.eq_tx_version
                0x000000001000407a       0x4a Output\obj\platform\bsp\bsp_eq.o
                0x000000001000407a                eq_tx_version
 .text.eq_parse_cmd
                0x00000000100040c4       0xa6 Output\obj\platform\bsp\bsp_eq.o
                0x00000000100040c4                eq_parse_cmd
 .text.eq_dbg_init
                0x000000001000416a       0x42 Output\obj\platform\bsp\bsp_eq.o
                0x000000001000416a                eq_dbg_init
 .text.bsp.key.init
                0x00000000100041ac      0x366 Output\obj\platform\bsp\bsp_key.o
                0x00000000100041ac                key_var_init
                0x00000000100041cc                key_init
 .text.bsp_saradc_init
                0x0000000010004512       0x58 Output\obj\platform\bsp\bsp_key.o
                0x0000000010004512                bsp_saradc_init
 .text.bsp_key_pwr_scan
                0x000000001000456a       0x1a Output\obj\platform\bsp\bsp_key.o
                0x000000001000456a                bsp_key_pwr_scan
 .text.bsp.power
                0x0000000010004584      0x3c0 Output\obj\platform\bsp\bsp_key.o
                0x0000000010004584                power_off_check
                0x00000000100046c0                power_on_check
 *fill*         0x0000000010004944        0x0 
 .text.music.res
                0x0000000010004944      0x3a0 Output\obj\platform\bsp\bsp_music.o
                0x0000000010004944                sys_warning_play_do
                0x0000000010004a34                tws_res_get_addr
                0x0000000010004c74                tws_res_proc
 .text.param_bt_new_name_read
                0x0000000010004ce4       0x12 Output\obj\platform\bsp\bsp_param.o
                0x0000000010004ce4                param_bt_new_name_read
 .text.param_bt_new_name_write
                0x0000000010004cf6       0x20 Output\obj\platform\bsp\bsp_param.o
                0x0000000010004cf6                param_bt_new_name_write
 .text.param_bt_new_name_clr
                0x0000000010004d16       0x2a Output\obj\platform\bsp\bsp_param.o
                0x0000000010004d16                param_bt_new_name_clr
 .text.bsp.param
                0x0000000010004d40       0x9c Output\obj\platform\bsp\bsp_param.o
                0x0000000010004d40                param_init
 *fill*         0x0000000010004ddc        0x0 
 .text.vhouse   0x0000000010004ddc      0x274 Output\obj\platform\bsp\bsp_smart_vhouse.o
                0x0000000010004ddc                bsp_vhouse_vbat_ack
                0x0000000010004ec2                bsp_vhouse_analysis_packet
                0x0000000010004fa0                bsp_vhouse_analysis_packet_for_charge
                0x0000000010005006                bsp_smart_vhouse_init
 .text.bt_tws_set_spp_eq_info
                0x0000000010005050       0x36 Output\obj\platform\bsp\bsp_spp.o
                0x0000000010005050                bt_tws_set_spp_eq_info
 .text.bt_app_cmd_process_hook
                0x0000000010005086        0x4 Output\obj\platform\bsp\bsp_spp.o
                0x0000000010005086                bt_app_cmd_process_hook
 .text.uart0_mapping_sel
                0x000000001000508a       0x3e Output\obj\platform\bsp\bsp_sys.o
                0x000000001000508a                uart0_mapping_sel
 .text.bsp_var_init
                0x00000000100050c8      0x20c Output\obj\platform\bsp\bsp_sys.o
                0x00000000100050c8                bsp_var_init
 .text.bt_rf_update_ft_trim_value
                0x00000000100052d4       0x60 Output\obj\platform\bsp\bsp_sys.o
                0x00000000100052d4                bt_rf_update_ft_trim_value
 .text.bsp_xcfg_init
                0x0000000010005334       0x72 Output\obj\platform\bsp\bsp_sys.o
                0x0000000010005334                bsp_xcfg_init
 .text.bsp.sys.init
                0x00000000100053a6      0x172 Output\obj\platform\bsp\bsp_sys.o
                0x00000000100053a6                bsp_sys_init
 .text.bsp_tkey_spp_tx
                0x0000000010005518        0x8 Output\obj\platform\bsp\bsp_tkey.o
                0x0000000010005518                bsp_tkey_spp_tx
 .text.bsp.tkey
                0x0000000010005520        0x8 Output\obj\platform\bsp\bsp_tkey.o
                0x0000000010005520                bsp_charge_bcnt_calibration
 .text.bsp_tkey_channel_set
                0x0000000010005528       0xb0 Output\obj\platform\bsp\bsp_tkey.o
                0x0000000010005528                bsp_tkey_channel_set
 .text.bsp_tkey_var_init
                0x00000000100055d8      0x108 Output\obj\platform\bsp\bsp_tkey.o
                0x00000000100055d8                bsp_tkey_var_init
 .text.bsp_tkey_init
                0x00000000100056e0      0x31a Output\obj\platform\bsp\bsp_tkey.o
                0x00000000100056e0                bsp_tkey_init
 .text.eq_dbg_huart_init
                0x00000000100059fa       0x3e Output\obj\platform\bsp\bsp_vusb_uart.o
                0x00000000100059fa                eq_dbg_huart_init
 .text.vusb     0x0000000010005a38        0x8 Output\obj\platform\bsp\bsp_vusb_uart.o
                0x0000000010005a38                bsp_vusb_uart_init
 .text.sbc      0x0000000010005a40       0x60 Output\obj\platform\bsp\bsp_warning_play.o
                0x0000000010005a40                sbc_res_dec_frame
 .text.warning  0x0000000010005aa0      0x6e8 Output\obj\platform\bsp\bsp_warning_play.o
                0x0000000010005aa0                sbcplay_set
                0x0000000010005ef2                sbc_res_var_init
                0x0000000010005f02                bt_ring_sbc_stop
                0x0000000010005f8e                bt_ring_sbc_play
                0x000000001000604a                sbc_res_play
                0x0000000010006162                wav_res_play_do
                0x0000000010006164                warning_play
 .text.func.process
                0x0000000010006188       0x76 Output\obj\platform\functions\func.o
                0x0000000010006188                func_process
 .text.func_volume_up
                0x00000000100061fe       0xec Output\obj\platform\functions\func.o
                0x00000000100061fe                func_volume_up
 .text.func_volume_down
                0x00000000100062ea       0xb2 Output\obj\platform\functions\func.o
                0x00000000100062ea                func_volume_down
 .text.func     0x000000001000639c       0xce Output\obj\platform\functions\func.o
                0x000000001000639c                func_clear
                0x00000000100063c4                func_exit
                0x000000001000641a                func_run
 .text.func_bt_tws_status_update
                0x000000001000646a       0x56 Output\obj\platform\functions\func_bt.o
                0x000000001000646a                func_bt_tws_status_update
 .text.func_bt_warning_discon
                0x00000000100064c0       0xd2 Output\obj\platform\functions\func_bt.o
                0x00000000100064c0                func_bt_warning_discon
 .text.func_bt_warning_conn
                0x0000000010006592       0x90 Output\obj\platform\functions\func_bt.o
                0x0000000010006592                func_bt_warning_conn
 .text.func_bt_warning_tws_con
                0x0000000010006622       0xd4 Output\obj\platform\functions\func_bt.o
                0x0000000010006622                func_bt_warning_tws_con
 .text.func_bt_dac_ctrl
                0x00000000100066f6       0x46 Output\obj\platform\functions\func_bt.o
                0x00000000100066f6                func_bt_dac_ctrl
 *fill*         0x000000001000673c        0x0 
 .text.func_bt_disp_status_do
                0x000000001000673c      0x132 Output\obj\platform\functions\func_bt.o
                0x000000001000673c                func_bt_disp_status_do
 .text.func_bt_init
                0x000000001000686e       0x4e Output\obj\platform\functions\func_bt.o
                0x000000001000686e                func_bt_init
 .text.func_bt_chk_off
                0x00000000100068bc       0x3a Output\obj\platform\functions\func_bt.o
                0x00000000100068bc                func_bt_chk_off
 .text.func_bt_enter
                0x00000000100068f6       0xee Output\obj\platform\functions\func_bt.o
                0x00000000100068f6                func_bt_enter
 .text.func_bt_exit
                0x00000000100069e4       0xd0 Output\obj\platform\functions\func_bt.o
                0x00000000100069e4                func_bt_exit
 .text.lowpwr.sleep
                0x0000000010006ab4      0x1b4 Output\obj\platform\functions\func_lowpwr.o
                0x0000000010006ab4                sfunc_sleep
 .text.sfunc_lowbat
                0x0000000010006c68       0x24 Output\obj\platform\functions\func_lowpwr.o
                0x0000000010006c68                sfunc_lowbat
 .text.sfunc_pwrdown
                0x0000000010006c8c       0x28 Output\obj\platform\functions\func_lowpwr.o
                0x0000000010006c8c                sfunc_pwrdown
 .text.lowpwr.pwroff
                0x0000000010006cb4      0x190 Output\obj\platform\functions\func_lowpwr.o
                0x0000000010006cb4                func_pwroff
 .text.sco_audio_init
                0x0000000010006e44      0x268 Output\obj\platform\functions\sfunc_bt_call.o
                0x0000000010006e44                sco_audio_init
 .text.sco_audio_exit
                0x00000000100070ac       0x62 Output\obj\platform\functions\sfunc_bt_call.o
                0x00000000100070ac                sco_audio_exit
 .text.sfunc_bt_call_enter
                0x000000001000710e       0x48 Output\obj\platform\functions\sfunc_bt_call.o
                0x000000001000710e                sfunc_bt_call_enter
 .text.sfunc_bt_call_exit
                0x0000000010007156       0x6a Output\obj\platform\functions\sfunc_bt_call.o
                0x0000000010007156                sfunc_bt_call_exit
 .text.func.bt  0x00000000100071c0       0x82 Output\obj\platform\functions\sfunc_bt_call.o
                0x00000000100071c0                sfunc_bt_call
 .text.bt_ring_var_init
                0x0000000010007242        0xa Output\obj\platform\functions\sfunc_bt_ring.o
                0x0000000010007242                bt_ring_var_init
 .text.bt_ring_stop
                0x000000001000724c       0x1a Output\obj\platform\functions\sfunc_bt_ring.o
                0x000000001000724c                bt_ring_stop
 .text.bt_ring_esbc_stop
                0x0000000010007266       0x4a Output\obj\platform\functions\sfunc_bt_ring.o
                0x0000000010007266                bt_ring_esbc_stop
 .text.bt_ring_esbc_play
                0x00000000100072b0       0x86 Output\obj\platform\functions\sfunc_bt_ring.o
                0x00000000100072b0                bt_ring_esbc_play
 .text.sfunc_bt_ring_process
                0x0000000010007336      0x298 Output\obj\platform\functions\sfunc_bt_ring.o
                0x0000000010007336                sfunc_bt_ring_process
 .text.sfunc_bt_ring_enter
                0x00000000100075ce      0x120 Output\obj\platform\functions\sfunc_bt_ring.o
                0x00000000100075ce                sfunc_bt_ring_enter
 .text.sfunc_bt_ring_exit
                0x00000000100076ee       0x9a Output\obj\platform\functions\sfunc_bt_ring.o
                0x00000000100076ee                sfunc_bt_ring_exit
 .text.func.btring
                0x0000000010007788       0x48 Output\obj\platform\functions\sfunc_bt_ring.o
                0x0000000010007788                sfunc_bt_ring
 .text.dhook_func_set
                0x00000000100077d0        0x2 Output\obj\platform\libs\strong_symbol.o
                0x00000000100077d0                dhook_func_set
 .text.va_enc_process
                0x00000000100077d2        0x2 Output\obj\platform\libs\strong_symbol.o
                0x00000000100077d2                va_enc_process
 .text.latt_init
                0x00000000100077d4        0x2 Output\obj\platform\libs\strong_symbol.o
                0x00000000100077d4                latt_init
 .text.btstack_att_send
                0x00000000100077d6        0x2 Output\obj\platform\libs\strong_symbol.o
                0x00000000100077d6                btstack_att_send
 .text.bt_va_get_sta
                0x00000000100077d8        0x4 Output\obj\platform\libs\strong_symbol.o
                0x00000000100077d8                bt_va_get_sta
 .text.bt_va_is_connect
                0x00000000100077dc        0x4 Output\obj\platform\libs\strong_symbol.o
                0x00000000100077dc                bt_va_is_connect
 .text.bt_va_start
                0x00000000100077e0        0x2 Output\obj\platform\libs\strong_symbol.o
                0x00000000100077e0                bt_va_start
 .text.magic_voice_process
                0x00000000100077e2        0x2 Output\obj\platform\libs\strong_symbol.o
                0x00000000100077e2                magic_voice_process
 .text.btstack_fcc_test_func
                0x00000000100077e4        0x2 Output\obj\platform\libs\strong_symbol.o
                0x00000000100077e4                btstack_fcc_test_func
 .text.btstack_fcc_init
                0x00000000100077e6        0x2 Output\obj\platform\libs\strong_symbol.o
                0x00000000100077e6                btstack_fcc_init
 .text.bt_fcc_test_ctrl_req
                0x00000000100077e8        0x2 Output\obj\platform\libs\strong_symbol.o
                0x00000000100077e8                bt_fcc_test_ctrl_req
 .text.bt_fcc_send_packet
                0x00000000100077ea        0x2 Output\obj\platform\libs\strong_symbol.o
                0x00000000100077ea                bt_fcc_send_packet
 .text.bt_fcc_test_is_en
                0x00000000100077ec        0x4 Output\obj\platform\libs\strong_symbol.o
                0x00000000100077ec                bt_fcc_test_is_en
 .text.codec    0x00000000100077f0        0x2 Output\obj\platform\libs\strong_symbol.o
                0x00000000100077f0                dbb_pcm_out_exit
 .text.bt_a2dp_avrcp_play_status_patch
                0x00000000100077f2        0x2 Output\obj\platform\libs\strong_symbol.o
                0x00000000100077f2                bt_a2dp_avrcp_play_status_patch
 .text.update_set_qcheck_code
                0x00000000100077f4        0x4 Output\obj\platform\libs\strong_symbol.o
                0x00000000100077f4                update_set_qcheck_code
 .text.qtest_beforehand_process
                0x00000000100077f8        0x2 Output\obj\platform\libs\strong_symbol.o
                0x00000000100077f8                qtest_beforehand_process
 .text.qtest_process
                0x00000000100077fa        0x2 Output\obj\platform\libs\strong_symbol.o
                0x00000000100077fa                qtest_process
 .text.param_bt_qpdn_boat_flag_write
                0x00000000100077fc        0x2 Output\obj\platform\libs\strong_symbol.o
                0x00000000100077fc                param_bt_qpdn_boat_flag_write
 .text.param_bt_qpdn_boat_flag_read
                0x00000000100077fe        0x2 Output\obj\platform\libs\strong_symbol.o
                0x00000000100077fe                param_bt_qpdn_boat_flag_read
 .text.param_bt_qpaird_id_read
                0x0000000010007800        0x4 Output\obj\platform\libs\strong_symbol.o
                0x0000000010007800                param_bt_qpaird_id_read
 .text.map_client_init
                0x0000000010007804        0x2 Output\obj\platform\libs\strong_symbol.o
                0x0000000010007804                map_client_init
 .text.goep_client_init
                0x0000000010007806        0x2 Output\obj\platform\libs\strong_symbol.o
                0x0000000010007806                goep_client_init
 .text.btstack_map
                0x0000000010007808        0x2 Output\obj\platform\libs\strong_symbol.o
                0x0000000010007808                btstack_map
 .text.eq_check_res
                0x000000001000780a        0x2 Output\obj\platform\libs\strong_symbol.o
                0x000000001000780a                eq_check_res
 .text.btstack_tws_link_ctrl_timer_is_active
                0x000000001000780c        0x4 Output\obj\platform\libs\strong_symbol.o
                0x000000001000780c                btstack_tws_link_ctrl_timer_is_active
 .text.btstack_store_a2dp_volume
                0x0000000010007810        0x2 Output\obj\platform\libs\strong_symbol.o
                0x0000000010007810                btstack_store_a2dp_volume
 .text.btstack_tws_set_scan
                0x0000000010007812        0x8 Output\obj\platform\libs\strong_symbol.o
                0x0000000010007812                btstack_tws_set_scan
 .text.charge_ntc_stop
                0x000000001000781a        0x2 Output\obj\platform\libs\strong_symbol.o
                0x000000001000781a                charge_ntc_stop
 .text.charge_detect_patch
                0x000000001000781c        0x2 Output\obj\platform\libs\strong_symbol.o
                0x000000001000781c                charge_detect_patch
 .text.bt_map_data_callback
                0x000000001000781e        0x2 Output\obj\platform\libs\strong_symbol.o
                0x000000001000781e                bt_map_data_callback
 .text.a2dp_set_aac_max_bitrate
                0x0000000010007820        0x2 Output\obj\platform\libs\strong_symbol.o
                0x0000000010007820                a2dp_set_aac_max_bitrate
 .text.btstack_tws_remote_send_nor_reconnect
                0x0000000010007822        0x4 Output\obj\platform\libs\strong_symbol.o
                0x0000000010007822                btstack_tws_remote_send_nor_reconnect
 .text.tws_remote_reconnect_nor
                0x0000000010007826        0x4 Output\obj\platform\libs\strong_symbol.o
                0x0000000010007826                tws_remote_reconnect_nor
 .text.tws_remote_set_reconnect
                0x000000001000782a        0x2 Output\obj\platform\libs\strong_symbol.o
                0x000000001000782a                tws_remote_set_reconnect
 .text.bt_low_latency_clr_busy
                0x000000001000782c        0x2 Output\obj\platform\libs\strong_symbol.o
                0x000000001000782c                bt_low_latency_clr_busy
 .text.avdtp_set_configuration_rsp_hook
                0x000000001000782e        0x4 Output\obj\platform\libs\strong_symbol.o
                0x000000001000782e                avdtp_set_configuration_rsp_hook
 .text.vusb_huart_set_patch
                0x0000000010007832        0x2 Output\obj\platform\libs\strong_symbol.o
                0x0000000010007832                vusb_huart_set_patch
 .text.dac_digvol_fade_patch
                0x0000000010007834        0x2 Output\obj\platform\libs\strong_symbol.o
                0x0000000010007834                dac_digvol_fade_patch
 .text.func     0x0000000010007836        0x4 Output\obj\projects\earphone\config.o
                0x0000000010007836                get_funcs_total
 .text.startup.init
                0x000000001000783a       0x42 Output\obj\projects\earphone\main.o
                0x000000001000783a                platform_user_init
 .text.startup.main
                0x000000001000787c       0x22 Output\obj\projects\earphone\main.o
                0x000000001000787c                main
 .text.user_def_key_msg
                0x000000001000789e      0x180 Output\obj\projects\earphone\message\msg_bt.o
                0x000000001000789e                user_def_key_msg
 .text.bt_tws_pair_mode
                0x0000000010007a1e       0x5a Output\obj\projects\earphone\message\msg_bt.o
                0x0000000010007a1e                bt_tws_pair_mode
 .text.bt_ring_reject
                0x0000000010007a78       0x28 Output\obj\projects\earphone\message\msg_bt.o
                0x0000000010007a78                bt_ring_reject
 .text.func_bt_message_do
                0x0000000010007aa0      0x488 Output\obj\projects\earphone\message\msg_bt.o
                0x0000000010007aa0                func_bt_message_do
 .text.sfunc_bt_ring_message_do
                0x0000000010007f28      0x156 Output\obj\projects\earphone\message\msg_bt.o
                0x0000000010007f28                sfunc_bt_ring_message_do
 .text.sfunc_bt_call_message_do
                0x000000001000807e      0x1ea Output\obj\projects\earphone\message\msg_bt.o
                0x000000001000807e                sfunc_bt_call_message_do
 .text.plugin_init
                0x0000000010008268        0x2 Output\obj\projects\earphone\plugin\plugin.o
                0x0000000010008268                plugin_init
 .text.eq       0x000000001000826a       0x2a Output\obj\projects\earphone\plugin\plugin.o
                0x000000001000826a                plugin_music_eq
 .text.plugin_var_init
                0x0000000010008294       0x38 Output\obj\projects\earphone\plugin\plugin.o
                0x0000000010008294                plugin_var_init
 .text.led_func_init
                0x00000000100082cc      0x168 Output\obj\projects\earphone\port\port_led.o
                0x00000000100082cc                led_func_init
 .text.pll_vco_band_trim
                0x0000000010008434      0x188 ..\..\platform\libs\libplatform.a(audio.o)
                0x0000000010008434                pll_vco_band_trim
 .text.adpll_divider_update
                0x00000000100085bc       0x38 ..\..\platform\libs\libplatform.a(audio.o)
                0x00000000100085bc                adpll_divider_update
 .text.adpll_spr_set
                0x00000000100085f4       0x32 ..\..\platform\libs\libplatform.a(audio.o)
                0x00000000100085f4                adpll_spr_set
 .text.adpll_init
                0x0000000010008626      0x14e ..\..\platform\libs\libplatform.a(audio.o)
                0x0000000010008626                adpll_init
 .text.anc_var_init
                0x0000000010008774       0x1e ..\..\platform\libs\libplatform.a(audio_anc.o)
                0x0000000010008774                anc_var_init
 .text.eq       0x0000000010008792      0x144 ..\..\platform\libs\libplatform.a(audio_eq.o)
                0x0000000010008792                music_eq_off
                0x000000001000879a                mic_eq_fade_out
                0x000000001000879c                mic_drc_off
                0x00000000100087ac                mic_eq_off
                0x00000000100087ca                music_set_eq
                0x000000001000880e                mic_set_eq
                0x0000000010008854                music_set_eq_by_res
 .text.drc      0x00000000100088d6        0xe ..\..\platform\libs\libplatform.a(audio_eq.o)
                0x00000000100088d6                music_drc_off
 .text.eq_res_crc_check
                0x00000000100088e4       0xf0 ..\..\platform\libs\libplatform.a(audio_eq.o)
                0x00000000100088e4                eq_res_crc_check
 .text.eq.mic   0x00000000100089d4       0x7e ..\..\platform\libs\libplatform.a(audio_eq.o)
                0x00000000100089d4                mic_set_eq_by_res
 .text.drc_param_cb_set
                0x0000000010008a52       0x3e ..\..\platform\libs\libplatform.a(audio_eq.o)
                0x0000000010008a52                drc_param_cb_set
 .text.drc_res_crc_check
                0x0000000010008a90       0x6e ..\..\platform\libs\libplatform.a(audio_eq.o)
                0x0000000010008a90                drc_res_crc_check
 .text.music_set_drc_by_res
                0x0000000010008afe       0x5a ..\..\platform\libs\libplatform.a(audio_eq.o)
                0x0000000010008afe                music_set_drc_by_res
 .text.mic_set_drc_by_res
                0x0000000010008b58       0x5a ..\..\platform\libs\libplatform.a(audio_eq.o)
                0x0000000010008b58                mic_set_drc_by_res
 .text.dac      0x0000000010008bb2      0x180 ..\..\platform\libs\libplatform.a(dac.o)
                0x0000000010008bb2                src1_put_zero
                0x0000000010008bd2                dac_power_off_pulldown_daclr
                0x0000000010008c40                dac_power_off_restore_daclr
                0x0000000010008cb8                dac_channel_enable
                0x0000000010008ce4                dac_channel_disable
 .text.sdadc    0x0000000010008d32      0x220 ..\..\platform\libs\libplatform.a(sdadc.o)
                0x0000000010008d32                sdadc_init
                0x0000000010008e36                sdadc_start
                0x0000000010008ec4                sdadc_exit
 .text.sdadc_var_init
                0x0000000010008f52       0x20 ..\..\platform\libs\libplatform.a(sdadc.o)
                0x0000000010008f52                sdadc_var_init
 .text.btstack_popup_ctrl
                0x0000000010008f72        0x8 ..\..\platform\libs\libplatform.a(bt.o)
                0x0000000010008f72                btstack_popup_ctrl
 .text.aap_init_var
                0x0000000010008f7a        0x8 ..\..\platform\libs\libplatform.a(bt.o)
                0x0000000010008f7a                aap_init_var
 .text.aap_init
                0x0000000010008f82        0x8 ..\..\platform\libs\libplatform.a(bt.o)
                0x0000000010008f82                aap_init
 .text.aec.nr   0x0000000010008f8a      0x1a8 ..\..\platform\libs\libplatform.a(bt_aec.o)
                0x0000000010008f8a                bt_aec_nr_dnn_gain2_smooth
                0x0000000010009052                dnn_noise_sum_dynamic_eq
 .text.aec_init
                0x0000000010009132      0x172 ..\..\platform\libs\libplatform.a(bt_aec.o)
                0x0000000010009132                aec_init
 .text.bt_voice_init
                0x00000000100092a4      0x128 ..\..\platform\libs\libplatform.a(bt_sco.o)
                0x00000000100092a4                bt_voice_init
 .text.bt_voice_exit
                0x00000000100093cc       0xa6 ..\..\platform\libs\libplatform.a(bt_sco.o)
                0x00000000100093cc                bt_voice_exit
 .text.cm_loadpage
                0x0000000010009472       0xa8 ..\..\platform\libs\libplatform.a(cm.o)
 .text.cm_next_freepage
                0x000000001000951a       0x54 ..\..\platform\libs\libplatform.a(cm.o)
 .text.cm_movepage
                0x000000001000956e       0x5e ..\..\platform\libs\libplatform.a(cm.o)
 .text.cm_release
                0x00000000100095cc      0x112 ..\..\platform\libs\libplatform.a(cm.o)
 .text.cm_savepage
                0x00000000100096de       0xc2 ..\..\platform\libs\libplatform.a(cm.o)
 .text.cm_check_loadpage
                0x00000000100097a0       0xb0 ..\..\platform\libs\libplatform.a(cm.o)
 .text.cm_sync  0x0000000010009850       0x40 ..\..\platform\libs\libplatform.a(cm.o)
                0x0000000010009850                cm_sync
 .text.cm_read  0x0000000010009890       0x44 ..\..\platform\libs\libplatform.a(cm.o)
                0x0000000010009890                cm_read
 .text.cm_write
                0x00000000100098d4       0x5c ..\..\platform\libs\libplatform.a(cm.o)
                0x00000000100098d4                cm_write
 .text.cm_init  0x0000000010009930      0x1fa ..\..\platform\libs\libplatform.a(cm.o)
                0x0000000010009930                cm_init
 .text.xcfg_init
                0x0000000010009b2a       0x56 ..\..\platform\libs\libplatform.a(xcfg.o)
                0x0000000010009b2a                xcfg_init
 .text.bt_warning_set_playing
                0x0000000010009b80        0x2 ..\..\platform\libs\libplatform.a(esbc.o)
                0x0000000010009b80                bt_warning_set_playing
 .text.esbc_res_play
                0x0000000010009b82       0x3a ..\..\platform\libs\libplatform.a(esbc.o)
                0x0000000010009b82                esbc_res_play
 .text.esbc_inner_res_play
                0x0000000010009bbc       0x56 ..\..\platform\libs\libplatform.a(esbc.o)
                0x0000000010009bbc                esbc_inner_res_play
 .text.main_startup
                0x0000000010009c12        0xa ..\..\platform\libs\libplatform.a(main.o)
                0x0000000010009c12                main_startup
 .text.bt_sco_patch_enter
                0x0000000010009c1c       0x90 ..\..\platform\libs\libplatform.a(main.o)
                0x0000000010009c1c                bt_sco_patch_enter
 .text.bt_sco_patch_exit
                0x0000000010009cac       0x3e ..\..\platform\libs\libplatform.a(main.o)
                0x0000000010009cac                bt_sco_patch_exit
 .text.sys_patch_set
                0x0000000010009cea      0x122 ..\..\platform\libs\libplatform.a(main.o)
                0x0000000010009cea                sys_patch_set
 .text.platform_main_do
                0x0000000010009e0c       0x7a ..\..\platform\libs\libplatform.a(main.o)
                0x0000000010009e0c                platform_main_do
 .text.charge_init
                0x0000000010009e86      0x164 ..\..\platform\libs\libplatform.a(charge.o)
                0x0000000010009e86                charge_init
 .text.debug_set
                0x0000000010009fea       0x14 ..\..\platform\libs\libplatform.a(debug.o)
                0x0000000010009fea                debug_set
 .text.patch_init
                0x0000000010009ffe       0x54 ..\..\platform\libs\libplatform.a(patch.o)
                0x0000000010009ffe                patch_init
 .text.pmu_init
                0x000000001000a052      0x3b2 ..\..\platform\libs\libplatform.a(power.o)
                0x000000001000a052                pmu_init
 .text.qtest_is_loading_local_addr
                0x000000001000a404       0x2a ..\..\platform\libs\libplatform.a(qtest.o)
                0x000000001000a404                qtest_is_loading_local_addr
 .text.qtest_feature_is_btdisconnet_pwroff
                0x000000001000a42e        0xe ..\..\platform\libs\libplatform.a(qtest.o)
                0x000000001000a42e                qtest_feature_is_btdisconnet_pwroff
 .text.qtest_xcfg_init
                0x000000001000a43c       0x56 ..\..\platform\libs\libplatform.a(qtest.o)
                0x000000001000a43c                qtest_xcfg_init
 .text.bsp_qtest_init
                0x000000001000a492       0x72 ..\..\platform\libs\libplatform.a(qtest.o)
                0x000000001000a492                bsp_qtest_init
 *fill*         0x000000001000a504       0xfc 
 .text.sys_ahook_func
                0x000000001000a600       0xf6 ..\..\platform\libs\libplatform.a(sys_hook.o)
                0x000000001000a600                sys_ahook_func
 *fill*         0x000000001000a6f6        0xa 
 .text.sys_bhook_func
                0x000000001000a700      0x1e0 ..\..\platform\libs\libplatform.a(sys_hook.o)
                0x000000001000a700                sys_bhook_func
 *fill*         0x000000001000a8e0      0x120 
 .text.sys_hook_func
                0x000000001000aa00      0x1ae ..\..\platform\libs\libplatform.a(sys_hook.o)
                0x000000001000aa00                sys_hook_func
 .text.sys_hook_var_init
                0x000000001000abae       0xaa ..\..\platform\libs\libplatform.a(sys_hook.o)
                0x000000001000abae                sys_hook_var_init
 .text.voltage.trim
                0x000000001000ac58      0x134 ..\..\platform\libs\libplatform.a(voltage_trim.o)
                0x000000001000ac58                voltage_trim_value_init
 .text.irq_init
                0x000000001000ad8c        0x2 ..\..\platform\libs\libplatform.a(interrupt.o)
                0x000000001000ad8c                irq_init
 .text.thread_main_entry
                0x000000001000ad8e      0x318 ..\..\platform\libs\libplatform.a(startup.o)
 .text.startup.init
                0x000000001000b0a6      0x168 ..\..\platform\libs\libplatform.a(startup.o)
                0x000000001000b0a6                sys_startup
 *fill*         0x000000001000b20e       0x72 
 .text.set_sys_clk_do
                0x000000001000b280       0x7a ..\..\platform\libs\libplatform.a(sys_clk.o)
                0x000000001000b280                set_sys_clk_do
 .text.sys_clk_set_do
                0x000000001000b2fa       0xf6 ..\..\platform\libs\libplatform.a(sys_clk.o)
                0x000000001000b2fa                sys_clk_set_do
 .text.lc_tsco_free_link
                0x000000001000b3f0       0x74 ..\..\platform\libs\libbtstack.a(ext_tsco.o)
                0x000000001000b3f0                lc_tsco_free_link
 .text.lc_con_cmp
                0x000000001000b464      0x190 ..\..\platform\libs\libbtstack.a(lc.o)
                0x000000001000b464                lc_con_cmp
 .text.tws_get_snoop_plugin_service_hook
                0x000000001000b5f4       0x8c ..\..\platform\libs\libbtstack.a(tws_acl.o)
                0x000000001000b5f4                tws_get_snoop_plugin_service_hook
 .text.tws_set_snoop_plugin_service_hook
                0x000000001000b680       0xc2 ..\..\platform\libs\libbtstack.a(tws_acl.o)
                0x000000001000b680                tws_set_snoop_plugin_service_hook
 .text.tws_get_rfcomm_service_fix
                0x000000001000b742       0x36 ..\..\platform\libs\libbtstack.a(tws_acl.o)
                0x000000001000b742                tws_get_rfcomm_service_fix
 .text.tws_get_snoop_service
                0x000000001000b778       0x6c ..\..\platform\libs\libbtstack.a(tws_acl.o)
                0x000000001000b778                tws_get_snoop_service
 .text.tws_set_rfcomm_service_fix
                0x000000001000b7e4       0x86 ..\..\platform\libs\libbtstack.a(tws_acl.o)
                0x000000001000b7e4                tws_set_rfcomm_service_fix
 .text.tws_set_snoop_service
                0x000000001000b86a      0x10e ..\..\platform\libs\libbtstack.a(tws_acl.o)
                0x000000001000b86a                tws_set_snoop_service
 .text.tws_switch_service_ok
                0x000000001000b978      0x35e ..\..\platform\libs\libbtstack.a(tws_acl.o)
                0x000000001000b978                tws_switch_service_ok
 .text.tws_send_snoop_service_cfm
                0x000000001000bcd6        0x4 ..\..\platform\libs\libbtstack.a(tws_acl.o)
                0x000000001000bcd6                tws_send_snoop_service_cfm
 .text.tws_switch_save_acl_tx_fix
                0x000000001000bcda      0x17a ..\..\platform\libs\libbtstack.a(tws_switch.o)
                0x000000001000bcda                tws_switch_save_acl_tx_fix
 .text.rf_init  0x000000001000be54       0x60 ..\..\platform\libs\libbtstack.a(rf.o)
                0x000000001000be54                rf_init
 .text.bias_en_rx
                0x000000001000beb4       0x14 ..\..\platform\libs\libbtstack.a(rf_viva.o)
                0x000000001000beb4                bias_en_rx
 .text.bias_en_tx_dcoc
                0x000000001000bec8       0x14 ..\..\platform\libs\libbtstack.a(rf_viva.o)
                0x000000001000bec8                bias_en_tx_dcoc
 .text.sx_en_rx
                0x000000001000bedc       0x2a ..\..\platform\libs\libbtstack.a(rf_viva.o)
                0x000000001000bedc                sx_en_rx
 .text.sx_en_rx_rc_trim
                0x000000001000bf06       0x22 ..\..\platform\libs\libbtstack.a(rf_viva.o)
                0x000000001000bf06                sx_en_rx_rc_trim
 .text.rx_en_rx_bq_dcoc
                0x000000001000bf28       0x4c ..\..\platform\libs\libbtstack.a(rf_viva.o)
                0x000000001000bf28                rx_en_rx_bq_dcoc
 .text.tx_en_tx_dcoc
                0x000000001000bf74       0x2c ..\..\platform\libs\libbtstack.a(rf_viva.o)
                0x000000001000bf74                tx_en_tx_dcoc
 .text.rf_rx_cacl_dc
                0x000000001000bfa0       0x98 ..\..\platform\libs\libbtstack.a(rf_viva.o)
                0x000000001000bfa0                rf_rx_cacl_dc
 .text.rf_trim_rxdc
                0x000000001000c038      0x1dc ..\..\platform\libs\libbtstack.a(rf_viva.o)
                0x000000001000c038                rf_trim_rxdc
 .text.rfphy_rxdc_cal
                0x000000001000c214       0xf0 ..\..\platform\libs\libbtstack.a(rf_viva.o)
                0x000000001000c214                rfphy_rxdc_cal
 .text.check_compare_ok
                0x000000001000c304       0x66 ..\..\platform\libs\libbtstack.a(rf_viva.o)
                0x000000001000c304                check_compare_ok
 .text.rfphy_txdc_cal_do
                0x000000001000c36a      0x27c ..\..\platform\libs\libbtstack.a(rf_viva.o)
                0x000000001000c36a                rfphy_txdc_cal_do
 .text.rfphy_txdc_cal
                0x000000001000c5e6      0x116 ..\..\platform\libs\libbtstack.a(rf_viva.o)
                0x000000001000c5e6                rfphy_txdc_cal
 .text.rfphy_txrx_init
                0x000000001000c6fc      0x282 ..\..\platform\libs\libbtstack.a(rf_viva.o)
                0x000000001000c6fc                rfphy_txrx_init
 .text.rfphy_agc_init
                0x000000001000c97e      0x12e ..\..\platform\libs\libbtstack.a(rf_viva.o)
                0x000000001000c97e                rfphy_agc_init
 .text.rfphy_txpwr_init
                0x000000001000caac       0xb6 ..\..\platform\libs\libbtstack.a(rf_viva.o)
                0x000000001000caac                rfphy_txpwr_init
 .text.rfphy_txrxdly_init
                0x000000001000cb62       0xb8 ..\..\platform\libs\libbtstack.a(rf_viva.o)
                0x000000001000cb62                rfphy_txrxdly_init
 .text.rfphy_init
                0x000000001000cc1a      0x104 ..\..\platform\libs\libbtstack.a(rf_viva.o)
                0x000000001000cc1a                rfphy_init
 .text.modem_init
                0x000000001000cd1e       0xd2 ..\..\platform\libs\libbtstack.a(rf_viva.o)
                0x000000001000cd1e                modem_init
 .text.rfphy_api_init
                0x000000001000cdf0       0x26 ..\..\platform\libs\libbtstack.a(rf_viva.o)
                0x000000001000cdf0                rfphy_api_init
 .text.stack.api
                0x000000001000ce16      0x108 ..\..\platform\libs\libbtstack.a(bt_api.o)
                0x000000001000ce16                bt_connect_for_the_first_time
                0x000000001000ce34                bt_connect_address
                0x000000001000ce3c                bt_nor_connect
                0x000000001000ce56                bt_nor_get_link_info_addr
                0x000000001000ce86                bt_disconnect
                0x000000001000cec4                bt_off
                0x000000001000cf1c                bt_api_init
 .text.bt_wait_lc_link_disconnect
                0x000000001000cf1e       0x2c ..\..\platform\libs\libbtstack.a(bt_api.o)
                0x000000001000cf1e                bt_wait_lc_link_disconnect
 .text.bt_talking_pen_fix_enable
                0x000000001000cf4a        0x4 ..\..\platform\libs\libbtstack.a(bt_api.o)
                0x000000001000cf4a                bt_talking_pen_fix_enable
 .text.bt_get_tws_remote_status
                0x000000001000cf4e       0x1a ..\..\platform\libs\libbtstack.a(bt_api.o)
                0x000000001000cf4e                bt_get_tws_remote_status
 .text.link_ctrl_timer_hid_recon_handler
                0x000000001000cf68       0x7a ..\..\platform\libs\libbtstack.a(btstack_api.o)
                0x000000001000cf68                link_ctrl_timer_hid_recon_handler
 .text.stack.api
                0x000000001000cfe2      0x71a ..\..\platform\libs\libbtstack.a(btstack_api.o)
                0x000000001000cfe2                btstack_play_pause
                0x000000001000d05e                btstack_call_answer_incom
                0x000000001000d074                btstack_call_answer_incom_reject_other
                0x000000001000d08a                btstack_call_terminate
                0x000000001000d146                btstack_siri_on
                0x000000001000d16e                btstack_play_private_switch
                0x000000001000d21c                bt_is_support_vol_ctrl
                0x000000001000d25e                btstack_send_tws_vol_ctrl_status
                0x000000001000d26c                bt_init
                0x000000001000d29c                lc_disconnect
                0x000000001000d35c                btstack_disconnect_do
                0x000000001000d540                btstack_disconnect
                0x000000001000d56a                btstack_volume_change_do
                0x000000001000d5b4                btstack_volume_change
                0x000000001000d5fa                bt_get_a2dp_status
 .text.btstack_connect_address
                0x000000001000d6fc       0x5c ..\..\platform\libs\libbtstack.a(btstack_api.o)
                0x000000001000d6fc                btstack_connect_address
 .text.btstack_tws_send_set_bypass
                0x000000001000d758        0xa ..\..\platform\libs\libbtstack.a(btstack_api.o)
                0x000000001000d758                btstack_tws_send_set_bypass
 .text.btstack_reset_bt_name
                0x000000001000d762        0x8 ..\..\platform\libs\libbtstack.a(btstack_api.o)
                0x000000001000d762                btstack_reset_bt_name
 .text.btstack_low_latency_en
                0x000000001000d76a       0x14 ..\..\platform\libs\libbtstack.a(btstack_api.o)
                0x000000001000d76a                btstack_low_latency_en
 .text.btstack_low_latency_dis
                0x000000001000d77e       0x14 ..\..\platform\libs\libbtstack.a(btstack_api.o)
                0x000000001000d77e                btstack_low_latency_dis
 .text.btstack_audio_enable
                0x000000001000d792       0x98 ..\..\platform\libs\libbtstack.a(btstack_api.o)
                0x000000001000d792                btstack_audio_enable
 .text.btstack_audio_bypass
                0x000000001000d82a       0x96 ..\..\platform\libs\libbtstack.a(btstack_api.o)
                0x000000001000d82a                btstack_audio_bypass
 .text.btstack_var_init
                0x000000001000d8c0       0x68 ..\..\platform\libs\libbtstack.a(btstack_api.o)
                0x000000001000d8c0                btstack_var_init
 .text.btstack_establish_service_connection_do
                0x000000001000d928       0xb0 ..\..\platform\libs\libbtstack.a(btstack_api.o)
                0x000000001000d928                btstack_establish_service_connection_do
 .text.btstack_establish_service_connection
                0x000000001000d9d8        0xc ..\..\platform\libs\libbtstack.a(btstack_api.o)
                0x000000001000d9d8                btstack_establish_service_connection
 .text.btstack_continue_establish_service_connection
                0x000000001000d9e4       0x36 ..\..\platform\libs\libbtstack.a(btstack_api.o)
                0x000000001000d9e4                btstack_continue_establish_service_connection
 .text.lc_is_exits
                0x000000001000da1a       0x22 ..\..\platform\libs\libbtstack.a(btstack_api.o)
                0x000000001000da1a                lc_is_exits
 .text.tws_lc_is_exits
                0x000000001000da3c       0x42 ..\..\platform\libs\libbtstack.a(btstack_api.o)
                0x000000001000da3c                tws_lc_is_exits
 .text.bt_tws_sync_ring_tone
                0x000000001000da7e       0xd6 ..\..\platform\libs\libbtstack.a(btstack_api.o)
                0x000000001000da7e                bt_tws_sync_ring_tone
 .text.stack.setup
                0x000000001000db54      0x1ea ..\..\platform\libs\libbtstack.a(btstack_api.o)
                0x000000001000db54                btstack_setup
 .text.btstack_sco_setup
                0x000000001000dd3e       0xa8 ..\..\platform\libs\libbtstack.a(btstack_api.o)
                0x000000001000dd3e                btstack_sco_setup
 .text.btstack_sco_kill
                0x000000001000dde6       0xca ..\..\platform\libs\libbtstack.a(btstack_api.o)
                0x000000001000dde6                btstack_sco_kill
 .text.stack.run_loop
                0x000000001000deb0      0x190 ..\..\platform\libs\libbtstack.a(btstack_api.o)
                0x000000001000deb0                btstack_message
 .text.stack.handler
                0x000000001000e040       0x52 ..\..\platform\libs\libbtstack.a(btstack_main.o)
                0x000000001000e040                user_packet_handler_fix
 .text.stack.setup
                0x000000001000e092      0x22c ..\..\platform\libs\libbtstack.a(btstack_main.o)
                0x000000001000e092                btstack_main
 .text.bt_get_pin_code
                0x000000001000e2be        0xa ..\..\platform\libs\libbtstack.a(weak_symbol.o)
                0x000000001000e2be                bt_get_pin_code
 .text.hfp_get_at_cmd
                0x000000001000e2c8        0xa ..\..\platform\libs\libbtstack.a(weak_symbol.o)
                0x000000001000e2c8                hfp_get_at_cmd
 .text.bt_a2dp_default_volume_is_enable
                0x000000001000e2d2        0x4 ..\..\platform\libs\libbtstack.a(weak_symbol.o)
                0x000000001000e2d2                bt_a2dp_default_volume_is_enable
 .text.hfp_notice_network_time
                0x000000001000e2d6        0x2 ..\..\platform\libs\libbtstack.a(weak_symbol.o)
                0x000000001000e2d6                hfp_notice_network_time
 .text.dac_fade_out_wait
                0x000000001000e2d8        0x2 ..\..\platform\libs\libbtstack.a(weak_symbol.o)
                0x000000001000e2d8                dac_fade_out_wait
 .text.bt_tws_customer_control_tws_scan_sta_en
                0x000000001000e2da        0x4 ..\..\platform\libs\libbtstack.a(weak_symbol.o)
                0x000000001000e2da                bt_tws_customer_control_tws_scan_sta_en
 .text.bt_change_nr_sta
                0x000000001000e2de        0x4 ..\..\platform\libs\libbtstack.a(weak_symbol.o)
                0x000000001000e2de                bt_change_nr_sta
 .text.bt_tws_timeout_delay_times
                0x000000001000e2e2        0x4 ..\..\platform\libs\libbtstack.a(weak_symbol.o)
                0x000000001000e2e2                bt_tws_timeout_delay_times
 .text.bt_get_class_of_device
                0x000000001000e2e6       0x68 ..\..\platform\libs\libbtstack.a(weak_symbol.o)
                0x000000001000e2e6                bt_get_class_of_device
 .text.bt_tws_set_lr_same_ch_mac_is_en
                0x000000001000e34e        0x4 ..\..\platform\libs\libbtstack.a(weak_symbol.o)
                0x000000001000e34e                bt_tws_set_lr_same_ch_mac_is_en
 .text.bt_tws_is_mac_channel
                0x000000001000e352        0x4 ..\..\platform\libs\libbtstack.a(weak_symbol.o)
                0x000000001000e352                bt_tws_is_mac_channel
 .text.bt_warning_is_playing
                0x000000001000e356        0x4 ..\..\platform\libs\libbtstack.a(weak_symbol.o)
                0x000000001000e356                bt_warning_is_playing
 .text.bt_tws_set_reconn_nor_enable
                0x000000001000e35a        0x4 ..\..\platform\libs\libbtstack.a(weak_symbol.o)
                0x000000001000e35a                bt_tws_set_reconn_nor_enable
 .text.bt_sco_far_delay_enable
                0x000000001000e35e        0x4 ..\..\platform\libs\libbtstack.a(weak_symbol.o)
                0x000000001000e35e                bt_sco_far_delay_enable
 .text.bt_tws_slave_conn_nor_fix_enable
                0x000000001000e362        0x4 ..\..\platform\libs\libbtstack.a(weak_symbol.o)
                0x000000001000e362                bt_tws_slave_conn_nor_fix_enable
 .text.bt_a2dp_music_xiaomi_fix_enable
                0x000000001000e366        0x4 ..\..\platform\libs\libbtstack.a(weak_symbol.o)
                0x000000001000e366                bt_a2dp_music_xiaomi_fix_enable
 .text.bt_tws_w4_nor_establish_hook
                0x000000001000e36a        0x2 ..\..\platform\libs\libbtstack.a(weak_symbol.o)
                0x000000001000e36a                bt_tws_w4_nor_establish_hook
 .text.vd_set_snoop_service_hook
                0x000000001000e36c        0x2 ..\..\platform\libs\libbtstack.a(weak_symbol.o)
                0x000000001000e36c                vd_set_snoop_service_hook
 .text.bt_tws_conn_nor_stop_recon_fix_enable
                0x000000001000e36e        0x4 ..\..\platform\libs\libbtstack.a(weak_symbol.o)
                0x000000001000e36e                bt_tws_conn_nor_stop_recon_fix_enable
 .text.bt_sup_time_out_recon_fix_enable
                0x000000001000e372        0x4 ..\..\platform\libs\libbtstack.a(weak_symbol.o)
                0x000000001000e372                bt_sup_time_out_recon_fix_enable
 .text.btstack_set_timer
                0x000000001000e376       0x4a ..\..\platform\libs\libbtstack.a(btstack_run_loop.o)
                0x000000001000e376                btstack_set_timer
 .text.aap_tws_set_info
                0x000000001000e3c0       0x24 ..\..\platform\libs\libbtstack.a(aap_server.o)
                0x000000001000e3c0                aap_tws_set_info
 .text.remove_aap_connect_context
                0x000000001000e3e4       0x38 ..\..\platform\libs\libbtstack.a(aap_server.o)
                0x000000001000e3e4                remove_aap_connect_context
 .text.aap_request_can_send_event
                0x000000001000e41c       0x4e ..\..\platform\libs\libbtstack.a(aap_server.o)
                0x000000001000e41c                aap_request_can_send_event
 .text.stack.api
                0x000000001000e46a       0x50 ..\..\platform\libs\libbtstack.a(aap_server.o)
                0x000000001000e46a                btstack_set_ear_sta
                0x000000001000e498                btstack_set_nr_sta
                0x000000001000e4b4                btstack_set_call_mute_sta
 .text.avrcp_set_connected
                0x000000001000e4ba       0x48 ..\..\platform\libs\libbtstack.a(avctp.o)
 .text.avrtp_get_capability_bit
                0x000000001000e502       0x2a ..\..\platform\libs\libbtstack.a(avctp.o)
                0x000000001000e502                avrtp_get_capability_bit
 .text.avrtp_get_capability_event
                0x000000001000e52c       0x2a ..\..\platform\libs\libbtstack.a(avctp.o)
                0x000000001000e52c                avrtp_get_capability_event
 .text.avrtp_get_capability_allbit
                0x000000001000e556        0x4 ..\..\platform\libs\libbtstack.a(avctp.o)
                0x000000001000e556                avrtp_get_capability_allbit
 .text.avrcp_parse_cmd
                0x000000001000e55a      0x28c ..\..\platform\libs\libbtstack.a(avctp.o)
                0x000000001000e55a                avrcp_parse_cmd
 .text.avctp_ready_to_send
                0x000000001000e7e6       0x50 ..\..\platform\libs\libbtstack.a(avctp.o)
                0x000000001000e7e6                avctp_ready_to_send
 .text.avctp_state_machine
                0x000000001000e836      0x16a ..\..\platform\libs\libbtstack.a(avctp.o)
                0x000000001000e836                avctp_state_machine
 .text.avrcp_parse_rsp
                0x000000001000e9a0      0x206 ..\..\platform\libs\libbtstack.a(avctp.o)
                0x000000001000e9a0                avrcp_parse_rsp
 .text.avctp_packet_handler_hook
                0x000000001000eba6      0x132 ..\..\platform\libs\libbtstack.a(avctp.o)
                0x000000001000eba6                avctp_packet_handler_hook
 .text.avdtp_tx_getcap_rsp
                0x000000001000ecd8      0x104 ..\..\platform\libs\libbtstack.a(avdtp.o)
 .text.avdtp_setconf_cmd
                0x000000001000eddc      0x3a2 ..\..\platform\libs\libbtstack.a(avdtp.o)
 .text.avdtp_signal_ready_to_send_fix
                0x000000001000f17e       0x38 ..\..\platform\libs\libbtstack.a(avdtp.o)
                0x000000001000f17e                avdtp_signal_ready_to_send_fix
 .text.avdtp_end_of_play
                0x000000001000f1b6      0x158 ..\..\platform\libs\libbtstack.a(avdtp.o)
                0x000000001000f1b6                avdtp_end_of_play
 .text.avdtp_timer_handler
                0x000000001000f30e       0x12 ..\..\platform\libs\libbtstack.a(avdtp.o)
 .text.avdtp_play_pause
                0x000000001000f320       0x60 ..\..\platform\libs\libbtstack.a(avdtp.o)
                0x000000001000f320                avdtp_play_pause
 *fill*         0x000000001000f380        0x0 
 .text.avdtp_packet_handler_hook
                0x000000001000f380      0x576 ..\..\platform\libs\libbtstack.a(avdtp.o)
                0x000000001000f380                avdtp_packet_handler_hook
 .text.stack.link_key
                0x000000001000f8f6      0x180 ..\..\platform\libs\libbtstack.a(btstack_link_key_db.o)
                0x000000001000f8f6                btstack_put_link_key
 .text.tws_set_nor_new_link_info
                0x000000001000fa76       0x16 ..\..\platform\libs\libbtstack.a(btstack_link_key_db.o)
                0x000000001000fa76                tws_set_nor_new_link_info
 .text.tws_set_nor_link_info
                0x000000001000fa8c      0x120 ..\..\platform\libs\libbtstack.a(btstack_link_key_db.o)
                0x000000001000fa8c                tws_set_nor_link_info
 .text.stack.setup
                0x000000001000fbac       0x64 ..\..\platform\libs\libbtstack.a(btstack_link_key_db.o)
                0x000000001000fbac                btstack_open_link_info
 .text.goep_client_get_goep_client_storage_for_cid
                0x000000001000fc10       0x1a ..\..\platform\libs\libbtstack.a(goep_client.o)
 .text.goep_client_get_goep_client_storage_for_rfcomm_cid
                0x000000001000fc2a       0x1e ..\..\platform\libs\libbtstack.a(goep_client.o)
 .text.goep_client_emit_connected_event
                0x000000001000fc48       0x5e ..\..\platform\libs\libbtstack.a(goep_client.o)
 .text.goep_client_packet_handler
                0x000000001000fca6       0xf2 ..\..\platform\libs\libbtstack.a(goep_client.o)
 .text.goep_client_packet_init
                0x000000001000fd98       0x4a ..\..\platform\libs\libbtstack.a(goep_client.o)
 .text.goep_client_packet_append
                0x000000001000fde2       0x5e ..\..\platform\libs\libbtstack.a(goep_client.o)
 .text.goep_client_remove_connection
                0x000000001000fe40       0x10 ..\..\platform\libs\libbtstack.a(goep_client.o)
                0x000000001000fe40                goep_client_remove_connection
 .text.goep_client_handle_query_rfcomm_event
                0x000000001000fe50       0x7a ..\..\platform\libs\libbtstack.a(goep_client.o)
                0x000000001000fe50                goep_client_handle_query_rfcomm_event
 .text.goep_client_disconnect
                0x000000001000feca       0x20 ..\..\platform\libs\libbtstack.a(goep_client.o)
                0x000000001000feca                goep_client_disconnect
 .text.goep_client_set_connection_id
                0x000000001000feea       0x12 ..\..\platform\libs\libbtstack.a(goep_client.o)
                0x000000001000feea                goep_client_set_connection_id
 .text.goep_client_get_request_opcode
                0x000000001000fefc       0x16 ..\..\platform\libs\libbtstack.a(goep_client.o)
                0x000000001000fefc                goep_client_get_request_opcode
 .text.goep_client_request_can_send_now
                0x000000001000ff12       0x2c ..\..\platform\libs\libbtstack.a(goep_client.o)
                0x000000001000ff12                goep_client_request_can_send_now
 .text.goep_client_create_connect_request
                0x000000001000ff3e       0x3c ..\..\platform\libs\libbtstack.a(goep_client.o)
                0x000000001000ff3e                goep_client_create_connect_request
 .text.goep_client_add_variable_header
                0x000000001000ff7a       0x3c ..\..\platform\libs\libbtstack.a(goep_client.o)
                0x000000001000ff7a                goep_client_add_variable_header
 .text.goep_client_add_word_header
                0x000000001000ffb6       0x28 ..\..\platform\libs\libbtstack.a(goep_client.o)
                0x000000001000ffb6                goep_client_add_word_header
 .text.goep_client_packet_add_connection_id
                0x000000001000ffde       0x22 ..\..\platform\libs\libbtstack.a(goep_client.o)
 .text.goep_client_create_get_request
                0x0000000010010000       0x18 ..\..\platform\libs\libbtstack.a(goep_client.o)
                0x0000000010010000                goep_client_create_get_request
 .text.goep_client_create_disconnect_request
                0x0000000010010018       0x18 ..\..\platform\libs\libbtstack.a(goep_client.o)
                0x0000000010010018                goep_client_create_disconnect_request
 .text.goep_client_add_header_target
                0x0000000010010030        0xc ..\..\platform\libs\libbtstack.a(goep_client.o)
                0x0000000010010030                goep_client_add_header_target
 .text.goep_client_add_header_name
                0x000000001001003c       0xb2 ..\..\platform\libs\libbtstack.a(goep_client.o)
                0x000000001001003c                goep_client_add_header_name
 .text.goep_client_add_header_type
                0x00000000100100ee       0x4e ..\..\platform\libs\libbtstack.a(goep_client.o)
                0x00000000100100ee                goep_client_add_header_type
 .text.goep_client_execute
                0x000000001001013c       0x5e ..\..\platform\libs\libbtstack.a(goep_client.o)
                0x000000001001013c                goep_client_execute
 .text.tws_get_goep_service
                0x000000001001019a       0x96 ..\..\platform\libs\libbtstack.a(goep_client.o)
                0x000000001001019a                tws_get_goep_service
 .text.tws_set_goep_service
                0x0000000010010230       0xcc ..\..\platform\libs\libbtstack.a(goep_client.o)
                0x0000000010010230                tws_set_goep_service
 .text.stack.api
                0x00000000100102fc      0x1e6 ..\..\platform\libs\libbtstack.a(hfp_hf.o)
                0x00000000100102fc                hfp_hf_dial_number
                0x0000000010010334                hfp_hf_answer_incoming_call
                0x00000000100103ce                hfp_hf_terminate_call
                0x0000000010010450                hfp_hf_reject_incoming_call
                0x0000000010010452                hfp_hf_at_cmd
                0x000000001001048a                hfp_hf_siri_on
 .text.hfp_parse
                0x00000000100104e2       0x7c ..\..\platform\libs\libbtstack.a(hfp_hf.o)
                0x00000000100104e2                hfp_parse
 .text.hfp_handle_rfcomm_event
                0x000000001001055e       0x64 ..\..\platform\libs\libbtstack.a(hfp_hf.o)
                0x000000001001055e                hfp_handle_rfcomm_event
 .text.hfp_hf_run_for_context_service_level_connection_queries_fix
                0x00000000100105c2       0x70 ..\..\platform\libs\libbtstack.a(hfp_hf.o)
                0x00000000100105c2                hfp_hf_run_for_context_service_level_connection_queries_fix
 .text.hfp_hf_packet_handler_hook
                0x0000000010010632       0x20 ..\..\platform\libs\libbtstack.a(hfp_hf.o)
                0x0000000010010632                hfp_hf_packet_handler_hook
 .text.map_client_emit_operation_complete_event
                0x0000000010010652       0x3e ..\..\platform\libs\libbtstack.a(map_client.o)
 .text.map_client_emit_connected_event
                0x0000000010010690       0x5e ..\..\platform\libs\libbtstack.a(map_client.o)
 .text.handle_query_rfcomm_event
                0x00000000100106ee        0x6 ..\..\platform\libs\libbtstack.a(map_client.o)
 .text.map_client_get_message_with_handle
                0x00000000100106f4       0x38 ..\..\platform\libs\libbtstack.a(map_client.o)
                0x00000000100106f4                map_client_get_message_with_handle
 *fill*         0x000000001001072c        0x0 
 .text.map_packet_handler
                0x000000001001072c      0x3b0 ..\..\platform\libs\libbtstack.a(map_client.o)
                0x000000001001072c                map_packet_handler
 .text.map_client_remove_connection
                0x0000000010010adc        0x8 ..\..\platform\libs\libbtstack.a(map_client.o)
                0x0000000010010adc                map_client_remove_connection
 .text.tws_get_map_service
                0x0000000010010ae4       0x72 ..\..\platform\libs\libbtstack.a(map_client.o)
                0x0000000010010ae4                tws_get_map_service
 .text.tws_set_map_service
                0x0000000010010b56       0xac ..\..\platform\libs\libbtstack.a(map_client.o)
                0x0000000010010b56                tws_set_map_service
 .text.obex_iterator_init_with_response_packet
                0x0000000010010c02       0x20 ..\..\platform\libs\libbtstack.a(obex_iterator.o)
                0x0000000010010c02                obex_iterator_init_with_response_packet
 .text.obex_iterator_has_more
                0x0000000010010c22        0xe ..\..\platform\libs\libbtstack.a(obex_iterator.o)
                0x0000000010010c22                obex_iterator_has_more
 .text.obex_iterator_next
                0x0000000010010c30       0x3e ..\..\platform\libs\libbtstack.a(obex_iterator.o)
                0x0000000010010c30                obex_iterator_next
 .text.obex_iterator_get_hi
                0x0000000010010c6e       0x10 ..\..\platform\libs\libbtstack.a(obex_iterator.o)
                0x0000000010010c6e                obex_iterator_get_hi
 .text.obex_iterator_get_data_32
                0x0000000010010c7e       0x10 ..\..\platform\libs\libbtstack.a(obex_iterator.o)
                0x0000000010010c7e                obex_iterator_get_data_32
 .text.obex_iterator_get_data_len
                0x0000000010010c8e       0x38 ..\..\platform\libs\libbtstack.a(obex_iterator.o)
                0x0000000010010c8e                obex_iterator_get_data_len
 .text.obex_iterator_get_data
                0x0000000010010cc6       0x1c ..\..\platform\libs\libbtstack.a(obex_iterator.o)
                0x0000000010010cc6                obex_iterator_get_data
 .text.hci_link_ctrl_stop_recon
                0x0000000010010ce2       0x2e ..\..\platform\libs\libbtstack.a(hci.o)
 .text.hci_event_conn_fail
                0x0000000010010d10      0x15a ..\..\platform\libs\libbtstack.a(hci.o)
 .text.stack.hci
                0x0000000010010e6a       0x28 ..\..\platform\libs\libbtstack.a(hci.o)
                0x0000000010010e6a                gap_store_link_key_for_bd_addr
 .text.hci_end_of_connect_complete
                0x0000000010010e92       0xb0 ..\..\platform\libs\libbtstack.a(hci.o)
                0x0000000010010e92                hci_end_of_connect_complete
 .text.stack.handler.event
                0x0000000010010f42      0x870 ..\..\platform\libs\libbtstack.a(hci.o)
                0x0000000010010f42                hci_event_handler
 .text.stack.setup
                0x00000000100117b2       0xaa ..\..\platform\libs\libbtstack.a(hci.o)
                0x00000000100117b2                hci_init
 .text.remove_latt_connection_context
                0x000000001001185c       0x26 ..\..\platform\libs\libbtstack.a(l2cap_att.o)
                0x000000001001185c                remove_latt_connection_context
 .text.provide_latt_connection_context_for_bd_addr
                0x0000000010011882       0x60 ..\..\platform\libs\libbtstack.a(l2cap_att.o)
                0x0000000010011882                provide_latt_connection_context_for_bd_addr
 .text.tws_scan_ctrl_ble
                0x00000000100118e2       0xbe ..\..\platform\libs\libbtstack.a(tws_con.o)
                0x00000000100118e2                tws_scan_ctrl_ble
 .text.tws_scan_ctrl_old
                0x00000000100119a0       0x84 ..\..\platform\libs\libbtstack.a(tws_con.o)
                0x00000000100119a0                tws_scan_ctrl_old
 .text.tws_scan_ctrl
                0x0000000010011a24       0x20 ..\..\platform\libs\libbtstack.a(tws_con.o)
                0x0000000010011a24                tws_scan_ctrl
 .text.btstack_tws_timer_handler
                0x0000000010011a44      0x192 ..\..\platform\libs\libbtstack.a(tws_con.o)
                0x0000000010011a44                btstack_tws_timer_handler
 .text.tws_start_fast_pair
                0x0000000010011bd6       0x32 ..\..\platform\libs\libbtstack.a(tws_con.o)
                0x0000000010011bd6                tws_start_fast_pair
 .text.tws_connect_complete_event
                0x0000000010011c08      0x178 ..\..\platform\libs\libbtstack.a(tws_con.o)
                0x0000000010011c08                tws_connect_complete_event
 *fill*         0x0000000010011d80        0x0 
 .text.tws_acl_handler_do_hook
                0x0000000010011d80       0xc2 ..\..\platform\libs\libbtstack.a(tws_con.o)
                0x0000000010011d80                tws_acl_handler_do_hook
 .text.stack.handler
                0x0000000010011e42      0x46e ..\..\platform\libs\libbtstack.a(tws_con.o)
                0x0000000010011e42                tws_packet_handler_hook
                0x0000000010011ea4                tws_packet_handler_fix
 .text.tws_acl_tx_cfm_cb
                0x00000000100122b0       0x50 ..\..\platform\libs\libbtstack.a(tws_con.o)
                0x00000000100122b0                tws_acl_tx_cfm_cb
 .text.stk.tws.send
                0x0000000010012300       0x58 ..\..\platform\libs\libbtstack.a(tws_con.o)
                0x0000000010012300                tws_l2cap_state_machine_hook
 .text.tws_con_init
                0x0000000010012358       0x74 ..\..\platform\libs\libbtstack.a(tws_con.o)
                0x0000000010012358                tws_con_init
 .text.btstack_tws_pair_init
                0x00000000100123cc       0x2e ..\..\platform\libs\libbtstack.a(tws_init.o)
                0x00000000100123cc                btstack_tws_pair_init
 .text.tws.init
                0x00000000100123fa       0x52 ..\..\platform\libs\libbtstack.a(tws_init.o)
                0x00000000100123fa                btstack_tws_init
 .text.lc_con_cmp_hook
                0x000000001001244c       0xb0 ..\..\platform\libs\libbtstack.a(lc_hook.o)
                0x000000001001244c                lc_con_cmp_hook
 .text.stk.bt.acl.tx.done
                0x00000000100124fc       0x28 ..\..\platform\libs\libbtstack.a(lc_hook.o)
                0x00000000100124fc                ext_acl_data_tx_cfm_hook
 .text.lc_flush_acl_tx_pend_fix
                0x0000000010012524       0x40 ..\..\platform\libs\libbtstack.a(lc_hook.o)
                0x0000000010012524                lc_flush_acl_tx_pend_fix
 .text.lc_op_vs_switch_to_handler
                0x0000000010012564      0x12c ..\..\platform\libs\libbtstack.a(lc_hook.o)
                0x0000000010012564                lc_op_vs_switch_to_handler
 *fill*         0x0000000010012690       0x70 
 .text.lc_free_hook
                0x0000000010012700       0xee ..\..\platform\libs\libbtstack.a(lc_hook.o)
                0x0000000010012700                lc_free_hook
 .text.bb_init  0x00000000100127ee      0x160 ..\..\platform\libs\libbtstack.a(bb.o)
                0x00000000100127ee                bb_init
 .text.bb_is_acl_buf
                0x000000001001294e       0x14 ..\..\platform\libs\libbtstack.a(bb.o)
                0x000000001001294e                bb_is_acl_buf
 .text.tws_ring_get_ticks_status
                0x0000000010012962       0x56 ..\..\platform\libs\libbtstack.a(ext_tws.o)
                0x0000000010012962                tws_ring_get_ticks_status
 .text.lc_lmp_vd_ctrl_req_handler_fix
                0x00000000100129b8       0xa6 ..\..\platform\libs\libbtstack.a(lc_proc.o)
 .text.lc_lmp_clk_off_req_handler
                0x0000000010012a5e       0xba ..\..\platform\libs\libbtstack.a(lc_proc.o)
 .text.lc_op_vd_msg_ind_handler
                0x0000000010012b18       0xfe ..\..\platform\libs\libbtstack.a(lc_proc.o)
 .text.lc_op_set_cmp_ind_handler
                0x0000000010012c16       0xc4 ..\..\platform\libs\libbtstack.a(lc_proc.o)
 .text.lc_page_scan_cfm_handler
                0x0000000010012cda      0x106 ..\..\platform\libs\libbtstack.a(lc_proc.o)
 .text.ext_acl_data_tx_cfm_handler
                0x0000000010012de0       0x6c ..\..\platform\libs\libbtstack.a(lc_proc.o)
 .text.lc_lmp_tx_cfm_handler_fix
                0x0000000010012e4c       0x60 ..\..\platform\libs\libbtstack.a(lc_proc.o)
 .text.task_lc_init
                0x0000000010012eac        0xc ..\..\platform\libs\libbtstack.a(lc_proc.o)
                0x0000000010012eac                task_lc_init
 .text.task_lm_init
                0x0000000010012eb8        0xc ..\..\platform\libs\libbtstack.a(lm_proc.o)
                0x0000000010012eb8                task_lm_init
 .text.tws_ctl_con_cmp
                0x0000000010012ec4       0x28 ..\..\platform\libs\libbtstack.a(tws.o)
                0x0000000010012ec4                tws_ctl_con_cmp
 *fill*         0x0000000010012eec       0x14 
 .text.tws_vs_msg_flush_do
                0x0000000010012f00       0x78 ..\..\platform\libs\libbtstack.a(tws.o)
                0x0000000010012f00                tws_vs_msg_flush_do
 .text.tws_msg_flush
                0x0000000010012f78       0x1a ..\..\platform\libs\libbtstack.a(tws.o)
                0x0000000010012f78                tws_msg_flush
 .text.tws_ctl_con_end
                0x0000000010012f92       0x16 ..\..\platform\libs\libbtstack.a(tws.o)
                0x0000000010012f92                tws_ctl_con_end
 .text.tws_remote_vol_ctrl_flag
                0x0000000010012fa8       0x1e ..\..\platform\libs\libbtstack.a(tws_lmp.o)
                0x0000000010012fa8                tws_remote_vol_ctrl_flag
 .text.tws_send_set_vol_ctrl_status
                0x0000000010012fc6       0x32 ..\..\platform\libs\libbtstack.a(tws_lmp.o)
                0x0000000010012fc6                tws_send_set_vol_ctrl_status
 .text.tws_vs_msg_flush
                0x0000000010012ff8        0xc ..\..\platform\libs\libbtstack.a(tws_lmp.o)
                0x0000000010012ff8                tws_vs_msg_flush
 .text.hci_tx_done_fix
                0x0000000010013004       0x7e ..\..\platform\libs\libbtstack.a(hcic.o)
 .text.hcic_init_hook
                0x0000000010013082       0x12 ..\..\platform\libs\libbtstack.a(hcic.o)
                0x0000000010013082                hcic_init_hook
 .text.tws_remote_set_siri_sta
                0x0000000010013094        0xe ..\..\platform\libs\libbtstack.a(att_siri_server.o)
                0x0000000010013094                tws_remote_set_siri_sta
 .text.nanos_task_replace
                0x00000000100130a2       0x2e ..\..\platform\libs\libbtstack.a(nanos.o)
                0x00000000100130a2                nanos_task_replace
 *(.rodata*)
 *fill*         0x00000000100130d0        0x0 
 .rodata        0x00000000100130d0       0x3c Output\obj\platform\bsp\bsp_audio.o
                0x00000000100130d0                rec_cfg_tbl
 .rodata.str1.4
                0x000000001001310c       0x30 Output\obj\platform\bsp\bsp_bt.o
 .rodata.bt_cfg
                0x000000001001313c       0x18 Output\obj\platform\bsp\bsp_bt.o
                0x000000001001313c                bt_cfg_tbl
 .rodata.sup_to
                0x0000000010013154        0x4 Output\obj\platform\bsp\bsp_bt.o
                0x0000000010013154                sup_to_con_times_tbl
 .rodata.charge
                0x0000000010013158       0x10 Output\obj\platform\bsp\bsp_charge.o
                0x0000000010013158                chag_bled_timeout_tbl
                0x0000000010013160                chag_limited_tbl
 .rodata.eq.table
                0x0000000010013168       0x30 Output\obj\platform\bsp\bsp_eq.o
                0x0000000010013168                music_eq_tbl
 .rodata.str1.4
                0x0000000010013198        0x4 Output\obj\platform\bsp\bsp_spp.o
 .rodata.tkey   0x000000001001319c        0x8 Output\obj\platform\bsp\bsp_tkey.o
                0x000000001001319c                tk_fil_high_tbl
 .rodata.str1.4
                0x00000000100131a4       0x14 Output\obj\platform\functions\func.o
 .rodata        0x00000000100131b8        0x9 Output\obj\platform\functions\func.o
 .rodata.str1.4
                0x00000000100131c1        0x4 Output\obj\platform\functions\func_bt.o
 *fill*         0x00000000100131c1        0x3 
 .rodata.str1.4
                0x00000000100131c4       0x17 Output\obj\platform\functions\func_lowpwr.o
                                         0x1c (size before relaxing)
 *fill*         0x00000000100131db        0x1 
 .rodata        0x00000000100131dc       0x20 Output\obj\platform\functions\func_lowpwr.o
 .rodata.str1.4
                0x00000000100131fc        0x4 Output\obj\platform\functions\sfunc_bt_call.o
 .rodata        0x00000000100131fc       0x22 Output\obj\platform\functions\sfunc_bt_call.o
 .rodata.str1.4
                0x000000001001321e        0x4 Output\obj\platform\functions\sfunc_bt_ring.o
 *fill*         0x000000001001321e        0x2 
 .rodata        0x0000000010013220        0xe Output\obj\platform\functions\sfunc_bt_ring.o
 *fill*         0x000000001001322e        0x2 
 .rodata.func.table
                0x0000000010013230        0x1 Output\obj\projects\earphone\config.o
                0x0000000010013230                func_sort_table
 *fill*         0x0000000010013231        0x3 
 .rodata.str1.4
                0x0000000010013234       0x14 Output\obj\projects\earphone\main.o
 .rodata        0x0000000010013248      0x260 Output\obj\projects\earphone\plugin\multi_lang.o
                0x0000000010013248                mul_lang_tbl
 .rodata.adkey.table
                0x00000000100134a8        0xe Output\obj\projects\earphone\port\port_key.o
                0x00000000100134a8                adkey_table
 *fill*         0x00000000100134b6        0x2 
 .rodata.tkey   0x00000000100134b8       0x4a Output\obj\projects\earphone\port\port_tkey.o
                0x00000000100134b8                tkey_cfg
                0x00000000100134ec                tkey_temp_cali_ch
                0x00000000100134f4                tkey_inear
                0x00000000100134fc                tkey0
 *fill*         0x0000000010013502        0x2 
 .rodata.eq.str1.4
                0x0000000010013504       0x3d ..\..\platform\libs\libplatform.a(audio_eq.o)
 *fill*         0x0000000010013541        0x3 
 .rodata.eq_res_crc_check.str1.4
                0x0000000010013544       0x1e ..\..\platform\libs\libplatform.a(audio_eq.o)
 *fill*         0x0000000010013562        0x2 
 .rodata.sdadc  0x0000000010013564      0x100 ..\..\platform\libs\libplatform.a(bt_aec.o)
                0x0000000010013564                aec_dig_gain_tbl
 .rodata.cm_next_freepage.str1.4
                0x0000000010013664        0xc ..\..\platform\libs\libplatform.a(cm.o)
 .rodata.cm_movepage.str1.4
                0x0000000010013670       0x10 ..\..\platform\libs\libplatform.a(cm.o)
 .rodata.cm_release.str1.4
                0x0000000010013680       0x22 ..\..\platform\libs\libplatform.a(cm.o)
 *fill*         0x00000000100136a2        0x2 
 .rodata.cm_savepage.str1.4
                0x00000000100136a4       0x13 ..\..\platform\libs\libplatform.a(cm.o)
 *fill*         0x00000000100136b7        0x1 
 .rodata.cm_check_loadpage.str1.4
                0x00000000100136b8       0x3b ..\..\platform\libs\libplatform.a(cm.o)
 *fill*         0x00000000100136f3        0x1 
 .rodata.cm_init.str1.4
                0x00000000100136f4       0x30 ..\..\platform\libs\libplatform.a(cm.o)
 .rodata.str1.4
                0x0000000010013724       0x10 ..\..\platform\libs\libplatform.a(main.o)
 .rodata.volt_trim
                0x0000000010013734       0x60 ..\..\platform\libs\libplatform.a(voltage_trim.o)
                0x0000000010013734                chg_icoef_tbl
                0x0000000010013774                ft_vbat_trim
                0x0000000010013784                ft_rf_dig_gain_trim
 .rodata.thread_main_entry.str1.4
                0x0000000010013794       0x38 ..\..\platform\libs\libplatform.a(startup.o)
 .rodata.startup.init.str1.4
                0x00000000100137cc       0x24 ..\..\platform\libs\libplatform.a(startup.o)
 .rodata.sysclk
                0x00000000100137f0       0x28 ..\..\platform\libs\libplatform.a(sys_clk.o)
                0x00000000100137f0                sysclk_info_tbl
 .rodata.bb.tbl
                0x0000000010013818        0x5 ..\..\platform\libs\libbtstack.a(rf_viva.o)
 *fill*         0x000000001001381d        0x3 
 .rodata.str1.4
                0x0000000010013820        0x6 ..\..\platform\libs\libbtstack.a(btstack_api.o)
 *fill*         0x0000000010013826        0x2 
 .rodata.stack.api
                0x0000000010013828       0xb4 ..\..\platform\libs\libbtstack.a(btstack_api.o)
                0x0000000010013828                btstack_api
 .rodata.stack.setup
                0x00000000100138dc       0x14 ..\..\platform\libs\libbtstack.a(btstack_api.o)
 .rodata.str1.4
                0x00000000100138f0       0x25 ..\..\platform\libs\libbtstack.a(weak_symbol.o)
                                         0x2d (size before relaxing)
 *fill*         0x0000000010013915        0x3 
 .rodata.stack.avctp
                0x0000000010013918        0x4 ..\..\platform\libs\libbtstack.a(avctp.o)
                0x0000000010013918                remote_capability_events
 .rodata.str1.4
                0x000000001001391c       0x1f ..\..\platform\libs\libbtstack.a(goep_client.o)
 *fill*         0x000000001001393b        0x1 
 .rodata.str1.4
                0x000000001001393c       0x13 ..\..\platform\libs\libbtstack.a(hfp_hf.o)
 *fill*         0x000000001001394f        0x1 
 .rodata.str1.4
                0x0000000010013950       0x36 ..\..\platform\libs\libbtstack.a(map_client.o)
 *fill*         0x0000000010013986        0x2 
 .rodata        0x0000000010013988       0x1c ..\..\platform\libs\libbtstack.a(map_client.o)
 .rodata.sdp.tbl
                0x00000000100139a4      0x118 ..\..\platform\libs\libbtstack.a(sdp_tbl.o)
                0x00000000100139a4                device_id_sdp_service_buffer
                0x00000000100139e4                avctp_target_category1_service_buffer
                0x0000000010013a28                avdtp_service_buffer
                0x0000000010013a6c                hfp_service_buffer
 .rodata.str1.4
                0x0000000010013abc       0x11 ..\..\platform\libs\libbtstack.a(hci.o)
 *fill*         0x0000000010013acd        0x3 
 .rodata.str1.4
                0x0000000010013ad0       0x3b ..\..\platform\libs\libbtstack.a(tws_con.o)
 *fill*         0x0000000010013b0b        0x1 
 .rodata.str1.4
                0x0000000010013b0c        0x6 ..\..\platform\libs\libbtstack.a(lc_hook.o)
 *(.rela*)
 .rela.com_text.timer
                0x0000000010013b12        0x0 Output\obj\platform\bsp\bsp_audio.o
 .rela.text.lowpwr.sleep
                0x0000000010013b12        0x0 Output\obj\platform\bsp\bsp_audio.o
 .rela.text.sfunc_lowbat
                0x0000000010013b12        0x0 Output\obj\platform\bsp\bsp_audio.o
 .rela.text.sfunc_pwrdown
                0x0000000010013b12        0x0 Output\obj\platform\bsp\bsp_audio.o
 .rela.text.eq  0x0000000010013b12        0x0 Output\obj\platform\bsp\bsp_audio.o
 .rela.text.eq.mic
                0x0000000010013b12        0x0 Output\obj\platform\bsp\bsp_audio.o
 .rela.com_text.mictrim
                0x0000000010013b12        0x0 Output\obj\platform\bsp\bsp_audio.o
 .rela.com_text.aec.proc
                0x0000000010013b12        0x0 Output\obj\platform\bsp\bsp_audio.o
 .rela.text.bt_voice_init
                0x0000000010013b12        0x0 Output\obj\platform\bsp\bsp_audio.o
 .rela.text.esbc_res_play
                0x0000000010013b12        0x0 Output\obj\platform\bsp\bsp_audio.o
 .rela.text.bt_sco_patch_enter
                0x0000000010013b12        0x0 Output\obj\platform\bsp\bsp_audio.o
 .rela.init_text
                0x0000000010013b12        0x0 Output\obj\platform\bsp\bsp_audio.o
 .rela.reset    0x0000000010013b12        0x0 Output\obj\platform\bsp\bsp_audio.o
 .rela.com_text.risr
                0x0000000010013b12        0x0 Output\obj\platform\bsp\bsp_audio.o
 .rela.com_text.charge
                0x0000000010013b12        0x0 Output\obj\platform\bsp\bsp_audio.o
 .rela.com_text.qtest
                0x0000000010013b12        0x0 Output\obj\platform\bsp\bsp_audio.o
 .rela.text.qtest_is_loading_local_addr
                0x0000000010013b12        0x0 Output\obj\platform\bsp\bsp_audio.o
 .rela.text.qtest_xcfg_init
                0x0000000010013b12        0x0 Output\obj\platform\bsp\bsp_audio.o
 .rela.text.bsp_qtest_init
                0x0000000010013b12        0x0 Output\obj\platform\bsp\bsp_audio.o
 .rela.text.sys_hook_func
                0x0000000010013b12        0x0 Output\obj\platform\bsp\bsp_audio.o
 .rela.text.sys_hook_var_init
                0x0000000010013b12        0x0 Output\obj\platform\bsp\bsp_audio.o
 .rela.com_text.music
                0x0000000010013b12        0x0 Output\obj\platform\bsp\bsp_audio.o
 .rela.text.tws_get_snoop_plugin_service_hook
                0x0000000010013b12        0x0 Output\obj\platform\bsp\bsp_audio.o
 .rela.text.tws_set_snoop_plugin_service_hook
                0x0000000010013b12        0x0 Output\obj\platform\bsp\bsp_audio.o
 .rela.text.tws_switch_service_ok
                0x0000000010013b12        0x0 Output\obj\platform\bsp\bsp_audio.o
 .rela.com_text.isr.txrx
                0x0000000010013b12        0x0 Output\obj\platform\bsp\bsp_audio.o
 .rela.com_text.rf
                0x0000000010013b12        0x0 Output\obj\platform\bsp\bsp_audio.o
 .rela.text.rfphy_agc_init
                0x0000000010013b12        0x0 Output\obj\platform\bsp\bsp_audio.o
 .rela.text.stack.api
                0x0000000010013b12        0x0 Output\obj\platform\bsp\bsp_audio.o
 .rela.text.btstack_audio_bypass
                0x0000000010013b12        0x0 Output\obj\platform\bsp\bsp_audio.o
 .rela.text.bt_tws_sync_ring_tone
                0x0000000010013b12        0x0 Output\obj\platform\bsp\bsp_audio.o
 .rela.text.stack.setup
                0x0000000010013b12        0x0 Output\obj\platform\bsp\bsp_audio.o
 .rela.rodata.stack.api
                0x0000000010013b12        0x0 Output\obj\platform\bsp\bsp_audio.o
 .rela.text.avrcp_parse_rsp
                0x0000000010013b12        0x0 Output\obj\platform\bsp\bsp_audio.o
 .rela.text.avdtp_packet_handler_hook
                0x0000000010013b12        0x0 Output\obj\platform\bsp\bsp_audio.o
 .rela.text.hfp_parse
                0x0000000010013b12        0x0 Output\obj\platform\bsp\bsp_audio.o
 .rela.text.map_packet_handler
                0x0000000010013b12        0x0 Output\obj\platform\bsp\bsp_audio.o
 .rela.text.hci_event_conn_fail
                0x0000000010013b12        0x0 Output\obj\platform\bsp\bsp_audio.o
 .rela.text.stack.handler.event
                0x0000000010013b12        0x0 Output\obj\platform\bsp\bsp_audio.o
 .rela.text.tws_scan_ctrl_ble
                0x0000000010013b12        0x0 Output\obj\platform\bsp\bsp_audio.o
 .rela.text.btstack_tws_timer_handler
                0x0000000010013b12        0x0 Output\obj\platform\bsp\bsp_audio.o
 .rela.text.tws_acl_handler_do_hook
                0x0000000010013b12        0x0 Output\obj\platform\bsp\bsp_audio.o
 .rela.text.stack.handler
                0x0000000010013b12        0x0 Output\obj\platform\bsp\bsp_audio.o
 .rela.text.lc_page_scan_cfm_handler
                0x0000000010013b12        0x0 Output\obj\platform\bsp\bsp_audio.o
                0x0000000010013c00                . = ALIGN (0x200)
 *fill*         0x0000000010013b12       0xee 

.bss            0x0000000000018500      0x218
                0x0000000000018500                __bss_start = .
 *(.bss*)
 .bss           0x0000000000018500        0xc Output\obj\platform\bsp\bsp_key.o
                0x0000000000018500                adc_cb1
 .bss.nr_noise_dyn_cb
                0x000000000001850c       0x14 ..\..\platform\libs\libplatform.a(bt_sco.o)
                0x000000000001850c                nr_noise_dyn_cb
 .bss.cm        0x0000000000018520      0x130 ..\..\platform\libs\libplatform.a(cm.o)
 .bss           0x0000000000018650       0x1c ..\..\platform\libs\libbtstack.a(btstack_api.o)
                0x0000000000018650                btstack_cb1
 .bss           0x000000000001866c       0x2c ..\..\platform\libs\libbtstack.a(map_client.o)
 *(.sbss*)
 .sbss          0x0000000000018698        0x2 Output\obj\platform\bsp\bsp_key.o
 *fill*         0x000000000001869a        0x2 
 .sbss          0x000000000001869c        0x4 Output\obj\platform\bsp\bsp_sys.o
                0x000000000001869c                sys_cb1
 .sbss          0x00000000000186a0        0xb Output\obj\platform\bsp\bsp_warning_play.o
                0x00000000000186a0                sbcplay_cb
                0x00000000000186a8                sbc_res
 *fill*         0x00000000000186ab        0x1 
 .sbss          0x00000000000186ac        0x2 Output\obj\platform\functions\sfunc_bt_ring.o
                0x00000000000186ac                f_bt_ring1
 .sbss.cfg_eq_enc_en
                0x00000000000186ae        0x1 ..\..\platform\libs\libplatform.a(audio_eq.o)
                0x00000000000186ae                cfg_eq_enc_en
 *fill*         0x00000000000186af        0x1 
 .sbss.aec_dig_gain
                0x00000000000186b0        0x4 ..\..\platform\libs\libplatform.a(bt_aec.o)
                0x00000000000186b0                aec_dig_gain
 .sbss.far_mute_cnt
                0x00000000000186b4        0x1 ..\..\platform\libs\libplatform.a(bt_aec.o)
                0x00000000000186b4                far_mute_cnt
 *fill*         0x00000000000186b5        0x3 
 .sbss.qtest1   0x00000000000186b8        0x2 ..\..\platform\libs\libplatform.a(qtest.o)
                0x00000000000186b8                qtest1
 .sbss          0x00000000000186ba        0x4 ..\..\platform\libs\libbtstack.a(weak_symbol.o)
                0x00000000000186ba                cfg_bt_inbox_ear_sta_change
                0x00000000000186bb                cfg_bt_link_filter
                0x00000000000186bc                cfg_bt_tws_nane_menu_type
                0x00000000000186bd                cfg_bt_va_en
 .sbss          0x00000000000186be        0x2 ..\..\platform\libs\libbtstack.a(ext_bt.o)
                0x00000000000186be                rx_sync_anchor_point
 *(COMMON)
 *(.buf*)
 *(.wavres.buf)
 *(.anc.*)
 *(.anc_buf*)
 *(.ble_buf*)
 .ble_buf.stack.mcap
                0x00000000000186c0       0x38 ..\..\platform\libs\libbtstack.a(l2cap_att.o)
                0x00000000000186f4                latt_connections
 .ble_buf.siri.server
                0x00000000000186f8       0x20 ..\..\platform\libs\libbtstack.a(att_siri_server.o)
 *(.ble_cache*)
                0x0000000000018718                __bss_end = .
                0x0000000000000218                __bss_size = (__bss_end - __bss_start)

.stack          0x0000000000063c00      0x400
                0x0000000000063c00                __irq_stack_start = .
                0x0000000000000400                . = 0x400
 *fill*         0x0000000000063c00      0x400 
                0x0000000000064000                __irq_stack = .
                0x0000000000000400                __irq_stack_size = (__irq_stack - __irq_stack_start)

.aram_fcc       0x0000000000050000     0x3350
                0x0000000000003350                . = 0x3350
 *fill*         0x0000000000050000     0x3350 
 *(.fcc_buf)

.ains3_ram      0x0000000000050000     0x6990
                0x0000000000005830                . = 0x5830
 *fill*         0x0000000000050000     0x5830 
 *(.ains3_buf.*)
 .ains3_buf.sta
                0x0000000000055830      0xb84 ..\..\platform\libs\libcodecs.a(ains3.o)
                0x0000000000055830                m_st
 .ains3_buf.trumpet
                0x00000000000563b4      0x2b8 ..\..\platform\libs\libcodecs.a(ains3.o)
                0x00000000000563b4                m_st2
                0x0000000000006990                . = 0x6990
 *fill*         0x000000000005666c      0x324 

.cram_fcc
 *(.huart_buf)

.cram_qtest
 *(.qtest_buf)

.cram_eq        0x0000000000018000      0x200
 *(.eq_dec_buf)
 .eq_dec_buf    0x0000000000018000      0x200 Output\obj\platform\libs\strong_symbol.o
                0x0000000000018000                eq_dec_param_buf

.cram_dbb
 *(.dbb_dec_buf)

.cram_dongle
 *(.dongle_buf)

nram_opus       0x0000000000040000     0x1800
 *(.siri*)
 *(.opus_buf.buf)
 *(.att_siri.buf)
 *(.mavsco_buf)
                0x0000000000001714                . = 0x1714
 *fill*         0x0000000000040000     0x1714 
                0x0000000000001800                . = 0x1800
 *fill*         0x0000000000041714       0xec 

nram_dbb        0x0000000000040000     0x1400
 *(.codecs_buf.pcm)
 *(.codecs_pcm*)
                0x0000000000001400                . = 0x1400
 *fill*         0x0000000000040000     0x1400 

.dram_opus      0x0000000000058000     0x4500
 *(.opus_buf*)
                0x0000000000004500                . = 0x4500
 *fill*         0x0000000000058000     0x4500 
                0x0000000010000c00                __comm_lma = LOADADDR (.comm)
                0x0000000000001000                __comm_size = SIZEOF (.comm)
                0x0000000010000200                __bcomm_lma = LOADADDR (.bcomm)
                0x0000000000000a00                __bcomm_size = SIZEOF (.bcomm)
                0x0000000010001e00                __acomm_lma = LOADADDR (.acomm)
                0x0000000000000000                __acomm_size = SIZEOF (.acomm)
                0x0000000010001e00                __sleep_comm_lma = LOADADDR (.sleep_comm)
                0x0000000000000400                __sleep_comm_size = SIZEOF (.sleep_comm)
                0x0000000010002200                __pwrdwn_comm_lma = LOADADDR (.pwrdwn_comm)
                0x0000000000000400                __pwrdwn_comm_size = SIZEOF (.pwrdwn_comm)
                0x0000000010001c00                __raminit_lma = LOADADDR (.raminit)
                0x0000000000000200                __raminit_size = SIZEOF (.raminit)
                0x0000000010002600                __dbb_comm_lma = LOADADDR (.dbb_comm)
                0x0000000000000000                __dbb_comm_size = SIZEOF (.dbb_comm)
LOAD ..\..\platform\libs\libplatform.a
LOAD ..\..\platform\libs\libbtstack.a
LOAD ..\..\platform\libs\libcodecs.a
OUTPUT(Output\bin\app.rv32 elf32-littleriscv)

.comment        0x0000000000000000       0x12
 .comment       0x0000000000000000       0x12 Output\obj\platform\bsp\bsp_audio.o
                                         0x13 (size before relaxing)
 .comment       0x0000000000000012       0x13 Output\obj\platform\bsp\bsp_ble.o
 .comment       0x0000000000000012       0x13 Output\obj\platform\bsp\bsp_bt.o
 .comment       0x0000000000000012       0x13 Output\obj\platform\bsp\bsp_charge.o
 .comment       0x0000000000000012       0x13 Output\obj\platform\bsp\bsp_cm.o
 .comment       0x0000000000000012       0x13 Output\obj\platform\bsp\bsp_dac.o
 .comment       0x0000000000000012       0x13 Output\obj\platform\bsp\bsp_eq.o
 .comment       0x0000000000000012       0x13 Output\obj\platform\bsp\bsp_key.o
 .comment       0x0000000000000012       0x13 Output\obj\platform\bsp\bsp_led.o
 .comment       0x0000000000000012       0x13 Output\obj\platform\bsp\bsp_music.o
 .comment       0x0000000000000012       0x13 Output\obj\platform\bsp\bsp_param.o
 .comment       0x0000000000000012       0x13 Output\obj\platform\bsp\bsp_smart_vhouse.o
 .comment       0x0000000000000012       0x13 Output\obj\platform\bsp\bsp_spp.o
 .comment       0x0000000000000012       0x13 Output\obj\platform\bsp\bsp_sys.o
 .comment       0x0000000000000012       0x13 Output\obj\platform\bsp\bsp_tkey.o
 .comment       0x0000000000000012       0x13 Output\obj\platform\bsp\bsp_vusb_uart.o
 .comment       0x0000000000000012       0x13 Output\obj\platform\bsp\bsp_warning_play.o
 .comment       0x0000000000000012       0x13 Output\obj\platform\functions\func.o
 .comment       0x0000000000000012       0x13 Output\obj\platform\functions\func_bt.o
 .comment       0x0000000000000012       0x13 Output\obj\platform\functions\func_lowpwr.o
 .comment       0x0000000000000012       0x13 Output\obj\platform\functions\sfunc_bt_call.o
 .comment       0x0000000000000012       0x13 Output\obj\platform\functions\sfunc_bt_ring.o
 .comment       0x0000000000000012       0x13 Output\obj\platform\libs\strong_symbol.o
 .comment       0x0000000000000012       0x13 Output\obj\projects\earphone\config.o
 .comment       0x0000000000000012       0x13 Output\obj\projects\earphone\main.o
 .comment       0x0000000000000012       0x13 Output\obj\projects\earphone\message\msg_bt.o
 .comment       0x0000000000000012       0x13 Output\obj\projects\earphone\plugin\multi_lang.o
 .comment       0x0000000000000012       0x13 Output\obj\projects\earphone\plugin\plugin.o
 .comment       0x0000000000000012       0x13 Output\obj\projects\earphone\port\port_breathe_led.o
 .comment       0x0000000000000012       0x13 Output\obj\projects\earphone\port\port_key.o
 .comment       0x0000000000000012       0x13 Output\obj\projects\earphone\port\port_led.o
 .comment       0x0000000000000012       0x13 Output\obj\projects\earphone\port\port_tkey.o
 .comment       0x0000000000000012       0x13 ..\..\platform\libs\libplatform.a(audio.o)
 .comment       0x0000000000000012       0x13 ..\..\platform\libs\libplatform.a(audio_anc.o)
 .comment       0x0000000000000012       0x13 ..\..\platform\libs\libplatform.a(audio_eq.o)
 .comment       0x0000000000000012       0x13 ..\..\platform\libs\libplatform.a(dac.o)
 .comment       0x0000000000000012       0x13 ..\..\platform\libs\libplatform.a(mic_trim.o)
 .comment       0x0000000000000012       0x13 ..\..\platform\libs\libplatform.a(sdadc.o)
 .comment       0x0000000000000012       0x13 ..\..\platform\libs\libplatform.a(bt.o)
 .comment       0x0000000000000012       0x13 ..\..\platform\libs\libplatform.a(bt_aec.o)
 .comment       0x0000000000000012       0x13 ..\..\platform\libs\libplatform.a(bt_sco.o)
 .comment       0x0000000000000012       0x13 ..\..\platform\libs\libplatform.a(cm.o)
 .comment       0x0000000000000012       0x13 ..\..\platform\libs\libplatform.a(xcfg.o)
 .comment       0x0000000000000012       0x13 ..\..\platform\libs\libplatform.a(esbc.o)
 .comment       0x0000000000000012       0x13 ..\..\platform\libs\libplatform.a(main.o)
 .comment       0x0000000000000012       0x13 ..\..\platform\libs\libplatform.a(codecs_pcm.o)
 .comment       0x0000000000000012       0x13 ..\..\platform\libs\libplatform.a(os_flash.o)
 .comment       0x0000000000000012       0x13 ..\..\platform\libs\libplatform.a(charge.o)
 .comment       0x0000000000000012       0x13 ..\..\platform\libs\libplatform.a(debug.o)
 .comment       0x0000000000000012       0x13 ..\..\platform\libs\libplatform.a(patch.o)
 .comment       0x0000000000000012       0x13 ..\..\platform\libs\libplatform.a(power.o)
 .comment       0x0000000000000012       0x13 ..\..\platform\libs\libplatform.a(qtest.o)
 .comment       0x0000000000000012       0x13 ..\..\platform\libs\libplatform.a(sys_hook.o)
 .comment       0x0000000000000012       0x13 ..\..\platform\libs\libplatform.a(voltage_trim.o)
 .comment       0x0000000000000012       0x13 ..\..\platform\libs\libplatform.a(interrupt.o)
 .comment       0x0000000000000012       0x13 ..\..\platform\libs\libplatform.a(startup.o)
 .comment       0x0000000000000012       0x13 ..\..\platform\libs\libplatform.a(music.o)
 .comment       0x0000000000000012       0x13 ..\..\platform\libs\libplatform.a(sys.o)
 .comment       0x0000000000000012       0x13 ..\..\platform\libs\libplatform.a(sys_clk.o)
 .comment       0x0000000000000012       0x13 ..\..\platform\libs\libbtstack.a(ext_tsco.o)
 .comment       0x0000000000000012       0x13 ..\..\platform\libs\libbtstack.a(lc.o)
 .comment       0x0000000000000012       0x13 ..\..\platform\libs\libbtstack.a(tws_acl.o)
 .comment       0x0000000000000012       0x13 ..\..\platform\libs\libbtstack.a(tws_switch.o)
 .comment       0x0000000000000012       0x13 ..\..\platform\libs\libbtstack.a(rf.o)
 .comment       0x0000000000000012       0x13 ..\..\platform\libs\libbtstack.a(rf_viva.o)
 .comment       0x0000000000000012       0x13 ..\..\platform\libs\libbtstack.a(bt_api.o)
 .comment       0x0000000000000012       0x13 ..\..\platform\libs\libbtstack.a(btstack_api.o)
 .comment       0x0000000000000012       0x13 ..\..\platform\libs\libbtstack.a(btstack_main.o)
 .comment       0x0000000000000012       0x13 ..\..\platform\libs\libbtstack.a(weak_symbol.o)
 .comment       0x0000000000000012       0x13 ..\..\platform\libs\libbtstack.a(btstack.o)
 .comment       0x0000000000000012       0x13 ..\..\platform\libs\libbtstack.a(btstack_run_loop.o)
 .comment       0x0000000000000012       0x13 ..\..\platform\libs\libbtstack.a(a2dp_play.o)
 .comment       0x0000000000000012       0x13 ..\..\platform\libs\libbtstack.a(aap_server.o)
 .comment       0x0000000000000012       0x13 ..\..\platform\libs\libbtstack.a(avctp.o)
 .comment       0x0000000000000012       0x13 ..\..\platform\libs\libbtstack.a(avdtp.o)
 .comment       0x0000000000000012       0x13 ..\..\platform\libs\libbtstack.a(btstack_link_key_db.o)
 .comment       0x0000000000000012       0x13 ..\..\platform\libs\libbtstack.a(goep_client.o)
 .comment       0x0000000000000012       0x13 ..\..\platform\libs\libbtstack.a(hfp_hf.o)
 .comment       0x0000000000000012       0x13 ..\..\platform\libs\libbtstack.a(map_client.o)
 .comment       0x0000000000000012       0x13 ..\..\platform\libs\libbtstack.a(obex_iterator.o)
 .comment       0x0000000000000012       0x13 ..\..\platform\libs\libbtstack.a(sdp_tbl.o)
 .comment       0x0000000000000012       0x13 ..\..\platform\libs\libbtstack.a(hci.o)
 .comment       0x0000000000000012       0x13 ..\..\platform\libs\libbtstack.a(hci_dump.o)
 .comment       0x0000000000000012       0x13 ..\..\platform\libs\libbtstack.a(l2cap_att.o)
 .comment       0x0000000000000012       0x13 ..\..\platform\libs\libbtstack.a(tws_con.o)
 .comment       0x0000000000000012       0x13 ..\..\platform\libs\libbtstack.a(tws_init.o)
 .comment       0x0000000000000012       0x13 ..\..\platform\libs\libbtstack.a(lc_hook.o)
 .comment       0x0000000000000012       0x13 ..\..\platform\libs\libbtstack.a(bb.o)
 .comment       0x0000000000000012       0x13 ..\..\platform\libs\libbtstack.a(ext_bt.o)
 .comment       0x0000000000000012       0x13 ..\..\platform\libs\libbtstack.a(ext_tws.o)
 .comment       0x0000000000000012       0x13 ..\..\platform\libs\libbtstack.a(lc_proc.o)
 .comment       0x0000000000000012       0x13 ..\..\platform\libs\libbtstack.a(lm_proc.o)
 .comment       0x0000000000000012       0x13 ..\..\platform\libs\libbtstack.a(tws.o)
 .comment       0x0000000000000012       0x13 ..\..\platform\libs\libbtstack.a(tws_lmp.o)
 .comment       0x0000000000000012       0x13 ..\..\platform\libs\libbtstack.a(hcic.o)
 .comment       0x0000000000000012       0x13 ..\..\platform\libs\libbtstack.a(att_siri_server.o)
 .comment       0x0000000000000012       0x13 ..\..\platform\libs\libbtstack.a(nanos.o)
 .comment       0x0000000000000012       0x13 ..\..\platform\libs\libcodecs.a(ains3.o)

.riscv.attributes
                0x0000000000000000       0x36
 .riscv.attributes
                0x0000000000000000       0x32 Output\obj\platform\bsp\bsp_audio.o
 .riscv.attributes
                0x0000000000000032       0x32 Output\obj\platform\bsp\bsp_ble.o
 .riscv.attributes
                0x0000000000000064       0x32 Output\obj\platform\bsp\bsp_bt.o
 .riscv.attributes
                0x0000000000000096       0x32 Output\obj\platform\bsp\bsp_charge.o
 .riscv.attributes
                0x00000000000000c8       0x32 Output\obj\platform\bsp\bsp_cm.o
 .riscv.attributes
                0x00000000000000fa       0x32 Output\obj\platform\bsp\bsp_dac.o
 .riscv.attributes
                0x000000000000012c       0x32 Output\obj\platform\bsp\bsp_eq.o
 .riscv.attributes
                0x000000000000015e       0x32 Output\obj\platform\bsp\bsp_key.o
 .riscv.attributes
                0x0000000000000190       0x32 Output\obj\platform\bsp\bsp_led.o
 .riscv.attributes
                0x00000000000001c2       0x32 Output\obj\platform\bsp\bsp_music.o
 .riscv.attributes
                0x00000000000001f4       0x32 Output\obj\platform\bsp\bsp_param.o
 .riscv.attributes
                0x0000000000000226       0x32 Output\obj\platform\bsp\bsp_smart_vhouse.o
 .riscv.attributes
                0x0000000000000258       0x32 Output\obj\platform\bsp\bsp_spp.o
 .riscv.attributes
                0x000000000000028a       0x32 Output\obj\platform\bsp\bsp_sys.o
 .riscv.attributes
                0x00000000000002bc       0x32 Output\obj\platform\bsp\bsp_tkey.o
 .riscv.attributes
                0x00000000000002ee       0x32 Output\obj\platform\bsp\bsp_vusb_uart.o
 .riscv.attributes
                0x0000000000000320       0x32 Output\obj\platform\bsp\bsp_warning_play.o
 .riscv.attributes
                0x0000000000000352       0x32 Output\obj\platform\functions\func.o
 .riscv.attributes
                0x0000000000000384       0x32 Output\obj\platform\functions\func_bt.o
 .riscv.attributes
                0x00000000000003b6       0x32 Output\obj\platform\functions\func_lowpwr.o
 .riscv.attributes
                0x00000000000003e8       0x32 Output\obj\platform\functions\sfunc_bt_call.o
 .riscv.attributes
                0x000000000000041a       0x32 Output\obj\platform\functions\sfunc_bt_ring.o
 .riscv.attributes
                0x000000000000044c       0x32 Output\obj\platform\libs\strong_symbol.o
 .riscv.attributes
                0x000000000000047e       0x32 Output\obj\projects\earphone\config.o
 .riscv.attributes
                0x00000000000004b0       0x32 Output\obj\projects\earphone\main.o
 .riscv.attributes
                0x00000000000004e2       0x32 Output\obj\projects\earphone\message\msg_bt.o
 .riscv.attributes
                0x0000000000000514       0x32 Output\obj\projects\earphone\plugin\multi_lang.o
 .riscv.attributes
                0x0000000000000546       0x32 Output\obj\projects\earphone\plugin\plugin.o
 .riscv.attributes
                0x0000000000000578       0x32 Output\obj\projects\earphone\port\port_breathe_led.o
 .riscv.attributes
                0x00000000000005aa       0x32 Output\obj\projects\earphone\port\port_key.o
 .riscv.attributes
                0x00000000000005dc       0x32 Output\obj\projects\earphone\port\port_led.o
 .riscv.attributes
                0x000000000000060e       0x32 Output\obj\projects\earphone\port\port_tkey.o
 .riscv.attributes
                0x0000000000000640       0x32 ..\..\platform\libs\libplatform.a(audio.o)
 .riscv.attributes
                0x0000000000000672       0x32 ..\..\platform\libs\libplatform.a(audio_anc.o)
 .riscv.attributes
                0x00000000000006a4       0x32 ..\..\platform\libs\libplatform.a(audio_eq.o)
 .riscv.attributes
                0x00000000000006d6       0x32 ..\..\platform\libs\libplatform.a(dac.o)
 .riscv.attributes
                0x0000000000000708       0x32 ..\..\platform\libs\libplatform.a(mic_trim.o)
 .riscv.attributes
                0x000000000000073a       0x32 ..\..\platform\libs\libplatform.a(sdadc.o)
 .riscv.attributes
                0x000000000000076c       0x32 ..\..\platform\libs\libplatform.a(bt.o)
 .riscv.attributes
                0x000000000000079e       0x32 ..\..\platform\libs\libplatform.a(bt_aec.o)
 .riscv.attributes
                0x00000000000007d0       0x32 ..\..\platform\libs\libplatform.a(bt_sco.o)
 .riscv.attributes
                0x0000000000000802       0x30 ..\..\platform\libs\libplatform.a(s_bt_aec.o)
 .riscv.attributes
                0x0000000000000832       0x32 ..\..\platform\libs\libplatform.a(cm.o)
 .riscv.attributes
                0x0000000000000864       0x32 ..\..\platform\libs\libplatform.a(xcfg.o)
 .riscv.attributes
                0x0000000000000896       0x32 ..\..\platform\libs\libplatform.a(esbc.o)
 .riscv.attributes
                0x00000000000008c8       0x32 ..\..\platform\libs\libplatform.a(main.o)
 .riscv.attributes
                0x00000000000008fa       0x32 ..\..\platform\libs\libplatform.a(codecs_pcm.o)
 .riscv.attributes
                0x000000000000092c       0x34 ..\..\platform\libs\libplatform.a(reset.o)
 .riscv.attributes
                0x0000000000000960       0x32 ..\..\platform\libs\libplatform.a(os_flash.o)
 .riscv.attributes
                0x0000000000000992       0x32 ..\..\platform\libs\libplatform.a(charge.o)
 .riscv.attributes
                0x00000000000009c4       0x32 ..\..\platform\libs\libplatform.a(debug.o)
 .riscv.attributes
                0x00000000000009f6       0x32 ..\..\platform\libs\libplatform.a(patch.o)
 .riscv.attributes
                0x0000000000000a28       0x32 ..\..\platform\libs\libplatform.a(power.o)
 .riscv.attributes
                0x0000000000000a5a       0x32 ..\..\platform\libs\libplatform.a(qtest.o)
 .riscv.attributes
                0x0000000000000a8c       0x32 ..\..\platform\libs\libplatform.a(sys_hook.o)
 .riscv.attributes
                0x0000000000000abe       0x32 ..\..\platform\libs\libplatform.a(voltage_trim.o)
 .riscv.attributes
                0x0000000000000af0       0x32 ..\..\platform\libs\libplatform.a(interrupt.o)
 .riscv.attributes
                0x0000000000000b22       0x32 ..\..\platform\libs\libplatform.a(startup.o)
 .riscv.attributes
                0x0000000000000b54       0x32 ..\..\platform\libs\libplatform.a(music.o)
 .riscv.attributes
                0x0000000000000b86       0x32 ..\..\platform\libs\libplatform.a(sys.o)
 .riscv.attributes
                0x0000000000000bb8       0x32 ..\..\platform\libs\libplatform.a(sys_clk.o)
 .riscv.attributes
                0x0000000000000bea       0x32 ..\..\platform\libs\libbtstack.a(ext_tsco.o)
 .riscv.attributes
                0x0000000000000c1c       0x32 ..\..\platform\libs\libbtstack.a(lc.o)
 .riscv.attributes
                0x0000000000000c4e       0x32 ..\..\platform\libs\libbtstack.a(tws_acl.o)
 .riscv.attributes
                0x0000000000000c80       0x32 ..\..\platform\libs\libbtstack.a(tws_switch.o)
 .riscv.attributes
                0x0000000000000cb2       0x32 ..\..\platform\libs\libbtstack.a(rf.o)
 .riscv.attributes
                0x0000000000000ce4       0x32 ..\..\platform\libs\libbtstack.a(rf_viva.o)
 .riscv.attributes
                0x0000000000000d16       0x32 ..\..\platform\libs\libbtstack.a(bt_api.o)
 .riscv.attributes
                0x0000000000000d48       0x32 ..\..\platform\libs\libbtstack.a(btstack_api.o)
 .riscv.attributes
                0x0000000000000d7a       0x32 ..\..\platform\libs\libbtstack.a(btstack_main.o)
 .riscv.attributes
                0x0000000000000dac       0x32 ..\..\platform\libs\libbtstack.a(weak_symbol.o)
 .riscv.attributes
                0x0000000000000dde       0x32 ..\..\platform\libs\libbtstack.a(btstack.o)
 .riscv.attributes
                0x0000000000000e10       0x32 ..\..\platform\libs\libbtstack.a(btstack_run_loop.o)
 .riscv.attributes
                0x0000000000000e42       0x32 ..\..\platform\libs\libbtstack.a(a2dp_play.o)
 .riscv.attributes
                0x0000000000000e74       0x32 ..\..\platform\libs\libbtstack.a(aap_server.o)
 .riscv.attributes
                0x0000000000000ea6       0x32 ..\..\platform\libs\libbtstack.a(avctp.o)
 .riscv.attributes
                0x0000000000000ed8       0x32 ..\..\platform\libs\libbtstack.a(avdtp.o)
 .riscv.attributes
                0x0000000000000f0a       0x32 ..\..\platform\libs\libbtstack.a(btstack_link_key_db.o)
 .riscv.attributes
                0x0000000000000f3c       0x32 ..\..\platform\libs\libbtstack.a(goep_client.o)
 .riscv.attributes
                0x0000000000000f6e       0x32 ..\..\platform\libs\libbtstack.a(hfp_hf.o)
 .riscv.attributes
                0x0000000000000fa0       0x32 ..\..\platform\libs\libbtstack.a(map_client.o)
 .riscv.attributes
                0x0000000000000fd2       0x32 ..\..\platform\libs\libbtstack.a(obex_iterator.o)
 .riscv.attributes
                0x0000000000001004       0x32 ..\..\platform\libs\libbtstack.a(sdp_tbl.o)
 .riscv.attributes
                0x0000000000001036       0x32 ..\..\platform\libs\libbtstack.a(hci.o)
 .riscv.attributes
                0x0000000000001068       0x32 ..\..\platform\libs\libbtstack.a(hci_dump.o)
 .riscv.attributes
                0x000000000000109a       0x32 ..\..\platform\libs\libbtstack.a(l2cap_att.o)
 .riscv.attributes
                0x00000000000010cc       0x32 ..\..\platform\libs\libbtstack.a(tws_con.o)
 .riscv.attributes
                0x00000000000010fe       0x32 ..\..\platform\libs\libbtstack.a(tws_init.o)
 .riscv.attributes
                0x0000000000001130       0x30 ..\..\platform\libs\libbtstack.a(btpatch.o)
 .riscv.attributes
                0x0000000000001160       0x32 ..\..\platform\libs\libbtstack.a(lc_hook.o)
 .riscv.attributes
                0x0000000000001192       0x32 ..\..\platform\libs\libbtstack.a(bb.o)
 .riscv.attributes
                0x00000000000011c4       0x32 ..\..\platform\libs\libbtstack.a(ext_bt.o)
 .riscv.attributes
                0x00000000000011f6       0x32 ..\..\platform\libs\libbtstack.a(ext_tws.o)
 .riscv.attributes
                0x0000000000001228       0x32 ..\..\platform\libs\libbtstack.a(lc_proc.o)
 .riscv.attributes
                0x000000000000125a       0x32 ..\..\platform\libs\libbtstack.a(lm_proc.o)
 .riscv.attributes
                0x000000000000128c       0x32 ..\..\platform\libs\libbtstack.a(tws.o)
 .riscv.attributes
                0x00000000000012be       0x32 ..\..\platform\libs\libbtstack.a(tws_lmp.o)
 .riscv.attributes
                0x00000000000012f0       0x32 ..\..\platform\libs\libbtstack.a(hcic.o)
 .riscv.attributes
                0x0000000000001322       0x32 ..\..\platform\libs\libbtstack.a(att_siri_server.o)
 .riscv.attributes
                0x0000000000001354       0x32 ..\..\platform\libs\libbtstack.a(nanos.o)
 .riscv.attributes
                0x0000000000001386       0x32 ..\..\platform\libs\libcodecs.a(ains3.o)

.debug_info     0x0000000000000000    0x1db90
 .debug_info    0x0000000000000000     0x2120 ..\..\platform\libs\libplatform.a(audio.o)
 .debug_info    0x0000000000002120      0x11a ..\..\platform\libs\libplatform.a(audio_anc.o)
 .debug_info    0x000000000000223a     0x12e5 ..\..\platform\libs\libplatform.a(audio_eq.o)
 .debug_info    0x000000000000351f     0x2466 ..\..\platform\libs\libplatform.a(dac.o)
 .debug_info    0x0000000000005985      0x1d5 ..\..\platform\libs\libplatform.a(mic_trim.o)
 .debug_info    0x0000000000005b5a     0x21c4 ..\..\platform\libs\libplatform.a(sdadc.o)
 .debug_info    0x0000000000007d1e      0x14d ..\..\platform\libs\libplatform.a(bt.o)
 .debug_info    0x0000000000007e6b     0x30a5 ..\..\platform\libs\libplatform.a(bt_aec.o)
 .debug_info    0x000000000000af10     0x273d ..\..\platform\libs\libplatform.a(bt_sco.o)
 .debug_info    0x000000000000d64d       0x26 ..\..\platform\libs\libplatform.a(s_bt_aec.o)
 .debug_info    0x000000000000d673     0x14ea ..\..\platform\libs\libplatform.a(cm.o)
 .debug_info    0x000000000000eb5d      0x23d ..\..\platform\libs\libplatform.a(xcfg.o)
 .debug_info    0x000000000000ed9a      0x895 ..\..\platform\libs\libplatform.a(esbc.o)
 .debug_info    0x000000000000f62f     0x281b ..\..\platform\libs\libplatform.a(main.o)
 .debug_info    0x0000000000011e4a      0xfe7 ..\..\platform\libs\libplatform.a(codecs_pcm.o)
 .debug_info    0x0000000000012e31       0x22 ..\..\platform\libs\libplatform.a(reset.o)
 .debug_info    0x0000000000012e53      0x3e2 ..\..\platform\libs\libplatform.a(os_flash.o)
 .debug_info    0x0000000000013235      0x4cc ..\..\platform\libs\libplatform.a(charge.o)
 .debug_info    0x0000000000013701      0x95d ..\..\platform\libs\libplatform.a(debug.o)
 .debug_info    0x000000000001405e      0x267 ..\..\platform\libs\libplatform.a(patch.o)
 .debug_info    0x00000000000142c5     0x2605 ..\..\platform\libs\libplatform.a(power.o)
 .debug_info    0x00000000000168ca     0x3961 ..\..\platform\libs\libplatform.a(qtest.o)
 .debug_info    0x000000000001a22b      0xc4e ..\..\platform\libs\libplatform.a(sys_hook.o)
 .debug_info    0x000000000001ae79      0x2ad ..\..\platform\libs\libplatform.a(voltage_trim.o)
 .debug_info    0x000000000001b126      0x155 ..\..\platform\libs\libplatform.a(interrupt.o)
 .debug_info    0x000000000001b27b      0xf9d ..\..\platform\libs\libplatform.a(startup.o)
 .debug_info    0x000000000001c218      0xb49 ..\..\platform\libs\libplatform.a(music.o)
 .debug_info    0x000000000001cd61      0xa1c ..\..\platform\libs\libplatform.a(sys.o)
 .debug_info    0x000000000001d77d      0x413 ..\..\platform\libs\libplatform.a(sys_clk.o)

.debug_abbrev   0x0000000000000000     0x3a9e
 .debug_abbrev  0x0000000000000000      0x259 ..\..\platform\libs\libplatform.a(audio.o)
 .debug_abbrev  0x0000000000000259       0xbe ..\..\platform\libs\libplatform.a(audio_anc.o)
 .debug_abbrev  0x0000000000000317      0x440 ..\..\platform\libs\libplatform.a(audio_eq.o)
 .debug_abbrev  0x0000000000000757      0x231 ..\..\platform\libs\libplatform.a(dac.o)
 .debug_abbrev  0x0000000000000988      0x11e ..\..\platform\libs\libplatform.a(mic_trim.o)
 .debug_abbrev  0x0000000000000aa6      0x26e ..\..\platform\libs\libplatform.a(sdadc.o)
 .debug_abbrev  0x0000000000000d14       0x87 ..\..\platform\libs\libplatform.a(bt.o)
 .debug_abbrev  0x0000000000000d9b      0x431 ..\..\platform\libs\libplatform.a(bt_aec.o)
 .debug_abbrev  0x00000000000011cc      0x28c ..\..\platform\libs\libplatform.a(bt_sco.o)
 .debug_abbrev  0x0000000000001458       0x14 ..\..\platform\libs\libplatform.a(s_bt_aec.o)
 .debug_abbrev  0x000000000000146c      0x421 ..\..\platform\libs\libplatform.a(cm.o)
 .debug_abbrev  0x000000000000188d      0x132 ..\..\platform\libs\libplatform.a(xcfg.o)
 .debug_abbrev  0x00000000000019bf      0x1ae ..\..\platform\libs\libplatform.a(esbc.o)
 .debug_abbrev  0x0000000000001b6d      0x2fb ..\..\platform\libs\libplatform.a(main.o)
 .debug_abbrev  0x0000000000001e68      0x2db ..\..\platform\libs\libplatform.a(codecs_pcm.o)
 .debug_abbrev  0x0000000000002143       0x12 ..\..\platform\libs\libplatform.a(reset.o)
 .debug_abbrev  0x0000000000002155      0x181 ..\..\platform\libs\libplatform.a(os_flash.o)
 .debug_abbrev  0x00000000000022d6      0x1cd ..\..\platform\libs\libplatform.a(charge.o)
 .debug_abbrev  0x00000000000024a3      0x2a8 ..\..\platform\libs\libplatform.a(debug.o)
 .debug_abbrev  0x000000000000274b      0x13f ..\..\platform\libs\libplatform.a(patch.o)
 .debug_abbrev  0x000000000000288a      0x1fb ..\..\platform\libs\libplatform.a(power.o)
 .debug_abbrev  0x0000000000002a85      0x42d ..\..\platform\libs\libplatform.a(qtest.o)
 .debug_abbrev  0x0000000000002eb2      0x241 ..\..\platform\libs\libplatform.a(sys_hook.o)
 .debug_abbrev  0x00000000000030f3      0x136 ..\..\platform\libs\libplatform.a(voltage_trim.o)
 .debug_abbrev  0x0000000000003229       0xed ..\..\platform\libs\libplatform.a(interrupt.o)
 .debug_abbrev  0x0000000000003316      0x202 ..\..\platform\libs\libplatform.a(startup.o)
 .debug_abbrev  0x0000000000003518      0x1bd ..\..\platform\libs\libplatform.a(music.o)
 .debug_abbrev  0x00000000000036d5      0x229 ..\..\platform\libs\libplatform.a(sys.o)
 .debug_abbrev  0x00000000000038fe      0x1a0 ..\..\platform\libs\libplatform.a(sys_clk.o)

.debug_loc      0x0000000000000000     0x428d
 .debug_loc     0x0000000000000000      0x201 ..\..\platform\libs\libplatform.a(audio.o)
 .debug_loc     0x0000000000000201      0xa5c ..\..\platform\libs\libplatform.a(audio_eq.o)
 .debug_loc     0x0000000000000c5d       0x9a ..\..\platform\libs\libplatform.a(dac.o)
 .debug_loc     0x0000000000000cf7       0x3c ..\..\platform\libs\libplatform.a(mic_trim.o)
 .debug_loc     0x0000000000000d33      0x189 ..\..\platform\libs\libplatform.a(sdadc.o)
 .debug_loc     0x0000000000000ebc       0x21 ..\..\platform\libs\libplatform.a(bt.o)
 .debug_loc     0x0000000000000edd      0x765 ..\..\platform\libs\libplatform.a(bt_aec.o)
 .debug_loc     0x0000000000001642      0x17d ..\..\platform\libs\libplatform.a(bt_sco.o)
 .debug_loc     0x00000000000017bf      0xcb9 ..\..\platform\libs\libplatform.a(cm.o)
 .debug_loc     0x0000000000002478       0x3c ..\..\platform\libs\libplatform.a(xcfg.o)
 .debug_loc     0x00000000000024b4      0x207 ..\..\platform\libs\libplatform.a(esbc.o)
 .debug_loc     0x00000000000026bb       0xc6 ..\..\platform\libs\libplatform.a(main.o)
 .debug_loc     0x0000000000002781      0x1e4 ..\..\platform\libs\libplatform.a(codecs_pcm.o)
 .debug_loc     0x0000000000002965      0x113 ..\..\platform\libs\libplatform.a(os_flash.o)
 .debug_loc     0x0000000000002a78       0xfd ..\..\platform\libs\libplatform.a(charge.o)
 .debug_loc     0x0000000000002b75      0x116 ..\..\platform\libs\libplatform.a(debug.o)
 .debug_loc     0x0000000000002c8b      0x15c ..\..\platform\libs\libplatform.a(patch.o)
 .debug_loc     0x0000000000002de7       0xb8 ..\..\platform\libs\libplatform.a(power.o)
 .debug_loc     0x0000000000002e9f      0x7e3 ..\..\platform\libs\libplatform.a(qtest.o)
 .debug_loc     0x0000000000003682      0x5a1 ..\..\platform\libs\libplatform.a(sys_hook.o)
 .debug_loc     0x0000000000003c23      0x1fa ..\..\platform\libs\libplatform.a(voltage_trim.o)
 .debug_loc     0x0000000000003e1d      0x143 ..\..\platform\libs\libplatform.a(interrupt.o)
 .debug_loc     0x0000000000003f60       0x42 ..\..\platform\libs\libplatform.a(startup.o)
 .debug_loc     0x0000000000003fa2       0x21 ..\..\platform\libs\libplatform.a(music.o)
 .debug_loc     0x0000000000003fc3      0x208 ..\..\platform\libs\libplatform.a(sys.o)
 .debug_loc     0x00000000000041cb       0xc2 ..\..\platform\libs\libplatform.a(sys_clk.o)

.debug_aranges  0x0000000000000000      0x930
 .debug_aranges
                0x0000000000000000       0x38 ..\..\platform\libs\libplatform.a(audio.o)
 .debug_aranges
                0x0000000000000038       0x20 ..\..\platform\libs\libplatform.a(audio_anc.o)
 .debug_aranges
                0x0000000000000058       0xe0 ..\..\platform\libs\libplatform.a(audio_eq.o)
 .debug_aranges
                0x0000000000000138       0x50 ..\..\platform\libs\libplatform.a(dac.o)
 .debug_aranges
                0x0000000000000188       0x28 ..\..\platform\libs\libplatform.a(mic_trim.o)
 .debug_aranges
                0x00000000000001b0       0x48 ..\..\platform\libs\libplatform.a(sdadc.o)
 .debug_aranges
                0x00000000000001f8       0x38 ..\..\platform\libs\libplatform.a(bt.o)
 .debug_aranges
                0x0000000000000230       0x58 ..\..\platform\libs\libplatform.a(bt_aec.o)
 .debug_aranges
                0x0000000000000288       0x50 ..\..\platform\libs\libplatform.a(bt_sco.o)
 .debug_aranges
                0x00000000000002d8       0x20 ..\..\platform\libs\libplatform.a(s_bt_aec.o)
 .debug_aranges
                0x00000000000002f8       0xc0 ..\..\platform\libs\libplatform.a(cm.o)
 .debug_aranges
                0x00000000000003b8       0x38 ..\..\platform\libs\libplatform.a(xcfg.o)
 .debug_aranges
                0x00000000000003f0       0x30 ..\..\platform\libs\libplatform.a(esbc.o)
 .debug_aranges
                0x0000000000000420       0xb8 ..\..\platform\libs\libplatform.a(main.o)
 .debug_aranges
                0x00000000000004d8       0x98 ..\..\platform\libs\libplatform.a(codecs_pcm.o)
 .debug_aranges
                0x0000000000000570       0x28 ..\..\platform\libs\libplatform.a(reset.o)
 .debug_aranges
                0x0000000000000598       0x30 ..\..\platform\libs\libplatform.a(os_flash.o)
 .debug_aranges
                0x00000000000005c8       0x48 ..\..\platform\libs\libplatform.a(charge.o)
 .debug_aranges
                0x0000000000000610       0x40 ..\..\platform\libs\libplatform.a(debug.o)
 .debug_aranges
                0x0000000000000650       0x38 ..\..\platform\libs\libplatform.a(patch.o)
 .debug_aranges
                0x0000000000000688       0x20 ..\..\platform\libs\libplatform.a(power.o)
 .debug_aranges
                0x00000000000006a8      0x118 ..\..\platform\libs\libplatform.a(qtest.o)
 .debug_aranges
                0x00000000000007c0       0x68 ..\..\platform\libs\libplatform.a(sys_hook.o)
 .debug_aranges
                0x0000000000000828       0x20 ..\..\platform\libs\libplatform.a(voltage_trim.o)
 .debug_aranges
                0x0000000000000848       0x28 ..\..\platform\libs\libplatform.a(interrupt.o)
 .debug_aranges
                0x0000000000000870       0x30 ..\..\platform\libs\libplatform.a(startup.o)
 .debug_aranges
                0x00000000000008a0       0x30 ..\..\platform\libs\libplatform.a(music.o)
 .debug_aranges
                0x00000000000008d0       0x38 ..\..\platform\libs\libplatform.a(sys.o)
 .debug_aranges
                0x0000000000000908       0x28 ..\..\platform\libs\libplatform.a(sys_clk.o)

.debug_ranges   0x0000000000000000      0xcb0
 .debug_ranges  0x0000000000000000       0x48 ..\..\platform\libs\libplatform.a(audio.o)
 .debug_ranges  0x0000000000000048       0x10 ..\..\platform\libs\libplatform.a(audio_anc.o)
 .debug_ranges  0x0000000000000058      0x198 ..\..\platform\libs\libplatform.a(audio_eq.o)
 .debug_ranges  0x00000000000001f0       0x40 ..\..\platform\libs\libplatform.a(dac.o)
 .debug_ranges  0x0000000000000230       0x18 ..\..\platform\libs\libplatform.a(mic_trim.o)
 .debug_ranges  0x0000000000000248       0x58 ..\..\platform\libs\libplatform.a(sdadc.o)
 .debug_ranges  0x00000000000002a0       0x28 ..\..\platform\libs\libplatform.a(bt.o)
 .debug_ranges  0x00000000000002c8      0x210 ..\..\platform\libs\libplatform.a(bt_aec.o)
 .debug_ranges  0x00000000000004d8       0x40 ..\..\platform\libs\libplatform.a(bt_sco.o)
 .debug_ranges  0x0000000000000518      0x1e0 ..\..\platform\libs\libplatform.a(cm.o)
 .debug_ranges  0x00000000000006f8       0x28 ..\..\platform\libs\libplatform.a(xcfg.o)
 .debug_ranges  0x0000000000000720       0x20 ..\..\platform\libs\libplatform.a(esbc.o)
 .debug_ranges  0x0000000000000740       0xa8 ..\..\platform\libs\libplatform.a(main.o)
 .debug_ranges  0x00000000000007e8       0xb8 ..\..\platform\libs\libplatform.a(codecs_pcm.o)
 .debug_ranges  0x00000000000008a0       0x20 ..\..\platform\libs\libplatform.a(reset.o)
 .debug_ranges  0x00000000000008c0       0x38 ..\..\platform\libs\libplatform.a(os_flash.o)
 .debug_ranges  0x00000000000008f8       0x38 ..\..\platform\libs\libplatform.a(charge.o)
 .debug_ranges  0x0000000000000930       0x78 ..\..\platform\libs\libplatform.a(debug.o)
 .debug_ranges  0x00000000000009a8       0x28 ..\..\platform\libs\libplatform.a(patch.o)
 .debug_ranges  0x00000000000009d0       0x10 ..\..\platform\libs\libplatform.a(power.o)
 .debug_ranges  0x00000000000009e0      0x1b8 ..\..\platform\libs\libplatform.a(qtest.o)
 .debug_ranges  0x0000000000000b98       0x58 ..\..\platform\libs\libplatform.a(sys_hook.o)
 .debug_ranges  0x0000000000000bf0       0x10 ..\..\platform\libs\libplatform.a(voltage_trim.o)
 .debug_ranges  0x0000000000000c00       0x18 ..\..\platform\libs\libplatform.a(interrupt.o)
 .debug_ranges  0x0000000000000c18       0x38 ..\..\platform\libs\libplatform.a(startup.o)
 .debug_ranges  0x0000000000000c50       0x20 ..\..\platform\libs\libplatform.a(music.o)
 .debug_ranges  0x0000000000000c70       0x28 ..\..\platform\libs\libplatform.a(sys.o)
 .debug_ranges  0x0000000000000c98       0x18 ..\..\platform\libs\libplatform.a(sys_clk.o)

.debug_line     0x0000000000000000     0xcd21
 .debug_line    0x0000000000000000      0x8b6 ..\..\platform\libs\libplatform.a(audio.o)
 .debug_line    0x00000000000008b6       0xb4 ..\..\platform\libs\libplatform.a(audio_anc.o)
 .debug_line    0x000000000000096a     0x1570 ..\..\platform\libs\libplatform.a(audio_eq.o)
 .debug_line    0x0000000000001eda      0x61f ..\..\platform\libs\libplatform.a(dac.o)
 .debug_line    0x00000000000024f9      0x26b ..\..\platform\libs\libplatform.a(mic_trim.o)
 .debug_line    0x0000000000002764      0x6d6 ..\..\platform\libs\libplatform.a(sdadc.o)
 .debug_line    0x0000000000002e3a       0xdf ..\..\platform\libs\libplatform.a(bt.o)
 .debug_line    0x0000000000002f19     0x1136 ..\..\platform\libs\libplatform.a(bt_aec.o)
 .debug_line    0x000000000000404f      0x649 ..\..\platform\libs\libplatform.a(bt_sco.o)
 .debug_line    0x0000000000004698       0x9d ..\..\platform\libs\libplatform.a(s_bt_aec.o)
 .debug_line    0x0000000000004735     0x18f2 ..\..\platform\libs\libplatform.a(cm.o)
 .debug_line    0x0000000000006027      0x1e8 ..\..\platform\libs\libplatform.a(xcfg.o)
 .debug_line    0x000000000000620f      0x1fd ..\..\platform\libs\libplatform.a(esbc.o)
 .debug_line    0x000000000000640c      0x9b5 ..\..\platform\libs\libplatform.a(main.o)
 .debug_line    0x0000000000006dc1      0xc6d ..\..\platform\libs\libplatform.a(codecs_pcm.o)
 .debug_line    0x0000000000007a2e       0xd8 ..\..\platform\libs\libplatform.a(reset.o)
 .debug_line    0x0000000000007b06      0x316 ..\..\platform\libs\libplatform.a(os_flash.o)
 .debug_line    0x0000000000007e1c      0x862 ..\..\platform\libs\libplatform.a(charge.o)
 .debug_line    0x000000000000867e      0x3fb ..\..\platform\libs\libplatform.a(debug.o)
 .debug_line    0x0000000000008a79      0x275 ..\..\platform\libs\libplatform.a(patch.o)
 .debug_line    0x0000000000008cee      0x5c7 ..\..\platform\libs\libplatform.a(power.o)
 .debug_line    0x00000000000092b5     0x1648 ..\..\platform\libs\libplatform.a(qtest.o)
 .debug_line    0x000000000000a8fd      0xa10 ..\..\platform\libs\libplatform.a(sys_hook.o)
 .debug_line    0x000000000000b30d      0x404 ..\..\platform\libs\libplatform.a(voltage_trim.o)
 .debug_line    0x000000000000b711      0x211 ..\..\platform\libs\libplatform.a(interrupt.o)
 .debug_line    0x000000000000b922      0x614 ..\..\platform\libs\libplatform.a(startup.o)
 .debug_line    0x000000000000bf36      0x36a ..\..\platform\libs\libplatform.a(music.o)
 .debug_line    0x000000000000c2a0      0x708 ..\..\platform\libs\libplatform.a(sys.o)
 .debug_line    0x000000000000c9a8      0x379 ..\..\platform\libs\libplatform.a(sys_clk.o)

.debug_str      0x0000000000000000     0x762c
 .debug_str     0x0000000000000000     0x1c35 ..\..\platform\libs\libplatform.a(audio.o)
                                       0x1cfd (size before relaxing)
 .debug_str     0x0000000000001c35       0x72 ..\..\platform\libs\libplatform.a(audio_anc.o)
                                        0x1d7 (size before relaxing)
 .debug_str     0x0000000000001ca7      0x56c ..\..\platform\libs\libplatform.a(audio_eq.o)
                                        0x758 (size before relaxing)
 .debug_str     0x0000000000002213      0x369 ..\..\platform\libs\libplatform.a(dac.o)
                                       0x1edc (size before relaxing)
 .debug_str     0x000000000000257c       0xe6 ..\..\platform\libs\libplatform.a(mic_trim.o)
                                        0x261 (size before relaxing)
 .debug_str     0x0000000000002662      0x1b2 ..\..\platform\libs\libplatform.a(sdadc.o)
                                       0x1d10 (size before relaxing)
 .debug_str     0x0000000000002814       0xca ..\..\platform\libs\libplatform.a(bt.o)
                                        0x227 (size before relaxing)
 .debug_str     0x00000000000028de      0x8e3 ..\..\platform\libs\libplatform.a(bt_aec.o)
                                       0x2500 (size before relaxing)
 .debug_str     0x00000000000031c1      0x309 ..\..\platform\libs\libplatform.a(bt_sco.o)
                                       0x2185 (size before relaxing)
 .debug_str     0x00000000000034ca       0x55 ..\..\platform\libs\libplatform.a(s_bt_aec.o)
                                         0x90 (size before relaxing)
 .debug_str     0x000000000000351f      0x350 ..\..\platform\libs\libplatform.a(cm.o)
                                        0x6db (size before relaxing)
 .debug_str     0x000000000000386f       0xf2 ..\..\platform\libs\libplatform.a(xcfg.o)
                                        0x260 (size before relaxing)
 .debug_str     0x0000000000003961      0x814 ..\..\platform\libs\libplatform.a(esbc.o)
                                        0x9ef (size before relaxing)
 .debug_str     0x0000000000004175      0x349 ..\..\platform\libs\libplatform.a(main.o)
                                       0x2001 (size before relaxing)
 .debug_str     0x00000000000044be      0x2eb ..\..\platform\libs\libplatform.a(codecs_pcm.o)
                                        0xbd6 (size before relaxing)
 .debug_str     0x00000000000047a9       0x43 ..\..\platform\libs\libplatform.a(reset.o)
                                         0x8a (size before relaxing)
 .debug_str     0x00000000000047ec       0x9d ..\..\platform\libs\libplatform.a(os_flash.o)
                                        0x353 (size before relaxing)
 .debug_str     0x0000000000004889      0x2d6 ..\..\platform\libs\libplatform.a(charge.o)
                                        0x489 (size before relaxing)
 .debug_str     0x0000000000004b5f      0x592 ..\..\platform\libs\libplatform.a(debug.o)
                                        0x963 (size before relaxing)
 .debug_str     0x00000000000050f1       0xa0 ..\..\platform\libs\libplatform.a(patch.o)
                                        0x237 (size before relaxing)
 .debug_str     0x0000000000005191       0x85 ..\..\platform\libs\libplatform.a(power.o)
                                       0x21d4 (size before relaxing)
 .debug_str     0x0000000000005216      0x967 ..\..\platform\libs\libplatform.a(qtest.o)
                                       0x2aaf (size before relaxing)
 .debug_str     0x0000000000005b7d      0xfd9 ..\..\platform\libs\libplatform.a(sys_hook.o)
                                       0x11f8 (size before relaxing)
 .debug_str     0x0000000000006b56       0xfd ..\..\platform\libs\libplatform.a(voltage_trim.o)
                                        0x2c5 (size before relaxing)
 .debug_str     0x0000000000006c53       0x98 ..\..\platform\libs\libplatform.a(interrupt.o)
                                        0x1f6 (size before relaxing)
 .debug_str     0x0000000000006ceb      0x48e ..\..\platform\libs\libplatform.a(startup.o)
                                        0x8fe (size before relaxing)
 .debug_str     0x0000000000007179      0x275 ..\..\platform\libs\libplatform.a(music.o)
                                        0xada (size before relaxing)
 .debug_str     0x00000000000073ee      0x12f ..\..\platform\libs\libplatform.a(sys.o)
                                        0x7cf (size before relaxing)
 .debug_str     0x000000000000751d      0x10f ..\..\platform\libs\libplatform.a(sys_clk.o)
                                        0x3e9 (size before relaxing)

.debug_frame    0x0000000000000000     0x1910
 .debug_frame   0x0000000000000000       0xa4 ..\..\platform\libs\libplatform.a(audio.o)
 .debug_frame   0x00000000000000a4       0x20 ..\..\platform\libs\libplatform.a(audio_anc.o)
 .debug_frame   0x00000000000000c4      0x324 ..\..\platform\libs\libplatform.a(audio_eq.o)
 .debug_frame   0x00000000000003e8       0xc0 ..\..\platform\libs\libplatform.a(dac.o)
 .debug_frame   0x00000000000004a8       0x54 ..\..\platform\libs\libplatform.a(mic_trim.o)
 .debug_frame   0x00000000000004fc       0xac ..\..\platform\libs\libplatform.a(sdadc.o)
 .debug_frame   0x00000000000005a8       0x50 ..\..\platform\libs\libplatform.a(bt.o)
 .debug_frame   0x00000000000005f8      0x10c ..\..\platform\libs\libplatform.a(bt_aec.o)
 .debug_frame   0x0000000000000704       0xdc ..\..\platform\libs\libplatform.a(bt_sco.o)
 .debug_frame   0x00000000000007e0      0x338 ..\..\platform\libs\libplatform.a(cm.o)
 .debug_frame   0x0000000000000b18       0x80 ..\..\platform\libs\libplatform.a(xcfg.o)
 .debug_frame   0x0000000000000b98       0x60 ..\..\platform\libs\libplatform.a(esbc.o)
 .debug_frame   0x0000000000000bf8      0x1d4 ..\..\platform\libs\libplatform.a(main.o)
 .debug_frame   0x0000000000000dcc      0x19c ..\..\platform\libs\libplatform.a(codecs_pcm.o)
 .debug_frame   0x0000000000000f68       0x88 ..\..\platform\libs\libplatform.a(os_flash.o)
 .debug_frame   0x0000000000000ff0       0xb4 ..\..\platform\libs\libplatform.a(charge.o)
 .debug_frame   0x00000000000010a4       0x8c ..\..\platform\libs\libplatform.a(debug.o)
 .debug_frame   0x0000000000001130       0x5c ..\..\platform\libs\libplatform.a(patch.o)
 .debug_frame   0x000000000000118c       0x38 ..\..\platform\libs\libplatform.a(power.o)
 .debug_frame   0x00000000000011c4      0x3ec ..\..\platform\libs\libplatform.a(qtest.o)
 .debug_frame   0x00000000000015b0      0x124 ..\..\platform\libs\libplatform.a(sys_hook.o)
 .debug_frame   0x00000000000016d4       0x34 ..\..\platform\libs\libplatform.a(voltage_trim.o)
 .debug_frame   0x0000000000001708       0x44 ..\..\platform\libs\libplatform.a(interrupt.o)
 .debug_frame   0x000000000000174c       0x60 ..\..\platform\libs\libplatform.a(startup.o)
 .debug_frame   0x00000000000017ac       0x78 ..\..\platform\libs\libplatform.a(music.o)
 .debug_frame   0x0000000000001824       0x8c ..\..\platform\libs\libplatform.a(sys.o)
 .debug_frame   0x00000000000018b0       0x60 ..\..\platform\libs\libplatform.a(sys_clk.o)
